ARM GAS  /var/folders/w5/30yxzty101lfkjn94y0dlkk00000gn/T//ccYZjDsw.s 			page 1


   1              		.cpu cortex-m4
   2              		.arch armv7e-m
   3              		.fpu fpv4-sp-d16
   4              		.eabi_attribute 27, 1
   5              		.eabi_attribute 28, 1
   6              		.eabi_attribute 20, 1
   7              		.eabi_attribute 21, 1
   8              		.eabi_attribute 23, 3
   9              		.eabi_attribute 24, 1
  10              		.eabi_attribute 25, 1
  11              		.eabi_attribute 26, 1
  12              		.eabi_attribute 30, 1
  13              		.eabi_attribute 34, 1
  14              		.eabi_attribute 18, 4
  15              		.file	"BMI088Middleware.c"
  16              		.text
  17              	.Ltext0:
  18              		.cfi_sections	.debug_frame
  19              		.file 1 "Core/Src/BMI088Middleware.c"
  20              		.section	.text.BMI088_GPIO_init,"ax",%progbits
  21              		.align	1
  22              		.global	BMI088_GPIO_init
  23              		.syntax unified
  24              		.thumb
  25              		.thumb_func
  27              	BMI088_GPIO_init:
  28              	.LFB162:
   1:Core/Src/BMI088Middleware.c **** #include "headfile.h"
   2:Core/Src/BMI088Middleware.c **** 
   3:Core/Src/BMI088Middleware.c **** extern SPI_HandleTypeDef hspi1;
   4:Core/Src/BMI088Middleware.c **** 
   5:Core/Src/BMI088Middleware.c **** void BMI088_GPIO_init(void)
   6:Core/Src/BMI088Middleware.c **** {
  29              		.loc 1 6 1 view -0
  30              		.cfi_startproc
  31              		@ args = 0, pretend = 0, frame = 0
  32              		@ frame_needed = 0, uses_anonymous_args = 0
  33              		@ link register save eliminated.
   7:Core/Src/BMI088Middleware.c **** 
   8:Core/Src/BMI088Middleware.c **** }
  34              		.loc 1 8 1 view .LVU1
  35 0000 7047     		bx	lr
  36              		.cfi_endproc
  37              	.LFE162:
  39              		.section	.text.BMI088_com_init,"ax",%progbits
  40              		.align	1
  41              		.global	BMI088_com_init
  42              		.syntax unified
  43              		.thumb
  44              		.thumb_func
  46              	BMI088_com_init:
  47              	.LFB163:
   9:Core/Src/BMI088Middleware.c **** 
  10:Core/Src/BMI088Middleware.c **** void BMI088_com_init(void)
  11:Core/Src/BMI088Middleware.c **** {
  48              		.loc 1 11 1 view -0
  49              		.cfi_startproc
ARM GAS  /var/folders/w5/30yxzty101lfkjn94y0dlkk00000gn/T//ccYZjDsw.s 			page 2


  50              		@ args = 0, pretend = 0, frame = 0
  51              		@ frame_needed = 0, uses_anonymous_args = 0
  52              		@ link register save eliminated.
  12:Core/Src/BMI088Middleware.c **** 
  13:Core/Src/BMI088Middleware.c **** 
  14:Core/Src/BMI088Middleware.c **** }
  53              		.loc 1 14 1 view .LVU3
  54 0000 7047     		bx	lr
  55              		.cfi_endproc
  56              	.LFE163:
  58              		.section	.text.BMI088_delay_us,"ax",%progbits
  59              		.align	1
  60              		.global	BMI088_delay_us
  61              		.syntax unified
  62              		.thumb
  63              		.thumb_func
  65              	BMI088_delay_us:
  66              	.LVL0:
  67              	.LFB165:
  15:Core/Src/BMI088Middleware.c **** 
  16:Core/Src/BMI088Middleware.c **** void BMI088_delay_ms(uint16_t ms)
  17:Core/Src/BMI088Middleware.c **** {
  18:Core/Src/BMI088Middleware.c ****     while(ms--)
  19:Core/Src/BMI088Middleware.c ****     {
  20:Core/Src/BMI088Middleware.c ****         BMI088_delay_us(1000);
  21:Core/Src/BMI088Middleware.c ****     }
  22:Core/Src/BMI088Middleware.c **** }
  23:Core/Src/BMI088Middleware.c **** 
  24:Core/Src/BMI088Middleware.c **** void BMI088_delay_us(uint16_t us)
  25:Core/Src/BMI088Middleware.c **** {
  68              		.loc 1 25 1 view -0
  69              		.cfi_startproc
  70              		@ args = 0, pretend = 0, frame = 0
  71              		@ frame_needed = 0, uses_anonymous_args = 0
  72              		@ link register save eliminated.
  73              		.loc 1 25 1 is_stmt 0 view .LVU5
  74 0000 10B4     		push	{r4}
  75              	.LCFI0:
  76              		.cfi_def_cfa_offset 4
  77              		.cfi_offset 4, -4
  26:Core/Src/BMI088Middleware.c **** 
  27:Core/Src/BMI088Middleware.c ****     uint32_t ticks = 0;
  78              		.loc 1 27 5 is_stmt 1 view .LVU6
  79              	.LVL1:
  28:Core/Src/BMI088Middleware.c ****     uint32_t told = 0;
  80              		.loc 1 28 5 view .LVU7
  29:Core/Src/BMI088Middleware.c ****     uint32_t tnow = 0;
  81              		.loc 1 29 5 view .LVU8
  30:Core/Src/BMI088Middleware.c ****     uint32_t tcnt = 0;
  82              		.loc 1 30 5 view .LVU9
  31:Core/Src/BMI088Middleware.c ****     uint32_t reload = 0;
  83              		.loc 1 31 5 view .LVU10
  32:Core/Src/BMI088Middleware.c ****     reload = SysTick->LOAD;
  84              		.loc 1 32 5 view .LVU11
  85              		.loc 1 32 12 is_stmt 0 view .LVU12
  86 0002 4FF0E023 		mov	r3, #-536813568
  87 0006 5C69     		ldr	r4, [r3, #20]
ARM GAS  /var/folders/w5/30yxzty101lfkjn94y0dlkk00000gn/T//ccYZjDsw.s 			page 3


  88              	.LVL2:
  33:Core/Src/BMI088Middleware.c ****     ticks = us * 168;
  89              		.loc 1 33 5 is_stmt 1 view .LVU13
  90              		.loc 1 33 16 is_stmt 0 view .LVU14
  91 0008 A822     		movs	r2, #168
  92 000a 02FB00FC 		mul	ip, r2, r0
  93              	.LVL3:
  34:Core/Src/BMI088Middleware.c ****     told = SysTick->VAL;
  94              		.loc 1 34 5 is_stmt 1 view .LVU15
  95              		.loc 1 34 10 is_stmt 0 view .LVU16
  96 000e 9B69     		ldr	r3, [r3, #24]
  97              	.LVL4:
  30:Core/Src/BMI088Middleware.c ****     uint32_t reload = 0;
  98              		.loc 1 30 14 view .LVU17
  99 0010 0021     		movs	r1, #0
 100 0012 04E0     		b	.L7
 101              	.LVL5:
 102              	.L5:
  35:Core/Src/BMI088Middleware.c ****     while (1)
  36:Core/Src/BMI088Middleware.c ****     {
  37:Core/Src/BMI088Middleware.c ****         tnow = SysTick->VAL;
  38:Core/Src/BMI088Middleware.c ****         if (tnow != told)
  39:Core/Src/BMI088Middleware.c ****         {
  40:Core/Src/BMI088Middleware.c ****             if (tnow < told)
  41:Core/Src/BMI088Middleware.c ****             {
  42:Core/Src/BMI088Middleware.c ****                 tcnt += told - tnow;
  43:Core/Src/BMI088Middleware.c ****             }
  44:Core/Src/BMI088Middleware.c ****             else
  45:Core/Src/BMI088Middleware.c ****             {
  46:Core/Src/BMI088Middleware.c ****                 tcnt += reload - tnow + told;
 103              		.loc 1 46 17 is_stmt 1 view .LVU18
 104              		.loc 1 46 32 is_stmt 0 view .LVU19
 105 0014 E01A     		subs	r0, r4, r3
 106              		.loc 1 46 39 view .LVU20
 107 0016 0244     		add	r2, r2, r0
 108              	.LVL6:
 109              		.loc 1 46 22 view .LVU21
 110 0018 1144     		add	r1, r1, r2
 111              	.LVL7:
 112              	.L6:
  47:Core/Src/BMI088Middleware.c ****             }
  48:Core/Src/BMI088Middleware.c ****             told = tnow;
 113              		.loc 1 48 13 is_stmt 1 view .LVU22
  49:Core/Src/BMI088Middleware.c ****             if (tcnt >= ticks)
 114              		.loc 1 49 13 view .LVU23
 115              		.loc 1 49 16 is_stmt 0 view .LVU24
 116 001a 6145     		cmp	r1, ip
 117 001c 09D2     		bcs	.L9
 118              	.LVL8:
 119              	.L7:
  30:Core/Src/BMI088Middleware.c ****     uint32_t reload = 0;
 120              		.loc 1 30 14 view .LVU25
 121 001e 1A46     		mov	r2, r3
 122              	.LVL9:
 123              	.L4:
  35:Core/Src/BMI088Middleware.c ****     {
 124              		.loc 1 35 5 is_stmt 1 view .LVU26
ARM GAS  /var/folders/w5/30yxzty101lfkjn94y0dlkk00000gn/T//ccYZjDsw.s 			page 4


  37:Core/Src/BMI088Middleware.c ****         if (tnow != told)
 125              		.loc 1 37 9 view .LVU27
  37:Core/Src/BMI088Middleware.c ****         if (tnow != told)
 126              		.loc 1 37 14 is_stmt 0 view .LVU28
 127 0020 4FF0E023 		mov	r3, #-536813568
 128 0024 9B69     		ldr	r3, [r3, #24]
 129              	.LVL10:
  38:Core/Src/BMI088Middleware.c ****         {
 130              		.loc 1 38 9 is_stmt 1 view .LVU29
  38:Core/Src/BMI088Middleware.c ****         {
 131              		.loc 1 38 12 is_stmt 0 view .LVU30
 132 0026 9A42     		cmp	r2, r3
 133 0028 FAD0     		beq	.L4
  40:Core/Src/BMI088Middleware.c ****             {
 134              		.loc 1 40 13 is_stmt 1 view .LVU31
  40:Core/Src/BMI088Middleware.c ****             {
 135              		.loc 1 40 16 is_stmt 0 view .LVU32
 136 002a F3D9     		bls	.L5
  42:Core/Src/BMI088Middleware.c ****             }
 137              		.loc 1 42 17 is_stmt 1 view .LVU33
  42:Core/Src/BMI088Middleware.c ****             }
 138              		.loc 1 42 30 is_stmt 0 view .LVU34
 139 002c D21A     		subs	r2, r2, r3
 140              	.LVL11:
  42:Core/Src/BMI088Middleware.c ****             }
 141              		.loc 1 42 22 view .LVU35
 142 002e 1144     		add	r1, r1, r2
 143              	.LVL12:
  42:Core/Src/BMI088Middleware.c ****             }
 144              		.loc 1 42 22 view .LVU36
 145 0030 F3E7     		b	.L6
 146              	.LVL13:
 147              	.L9:
  50:Core/Src/BMI088Middleware.c ****             {
  51:Core/Src/BMI088Middleware.c ****                 break;
  52:Core/Src/BMI088Middleware.c ****             }
  53:Core/Src/BMI088Middleware.c ****         }
  54:Core/Src/BMI088Middleware.c ****     }
  55:Core/Src/BMI088Middleware.c **** 
  56:Core/Src/BMI088Middleware.c **** 
  57:Core/Src/BMI088Middleware.c **** }
 148              		.loc 1 57 1 view .LVU37
 149 0032 5DF8044B 		ldr	r4, [sp], #4
 150              	.LCFI1:
 151              		.cfi_restore 4
 152              		.cfi_def_cfa_offset 0
 153              	.LVL14:
 154              		.loc 1 57 1 view .LVU38
 155 0036 7047     		bx	lr
 156              		.cfi_endproc
 157              	.LFE165:
 159              		.section	.text.BMI088_delay_ms,"ax",%progbits
 160              		.align	1
 161              		.global	BMI088_delay_ms
 162              		.syntax unified
 163              		.thumb
 164              		.thumb_func
ARM GAS  /var/folders/w5/30yxzty101lfkjn94y0dlkk00000gn/T//ccYZjDsw.s 			page 5


 166              	BMI088_delay_ms:
 167              	.LVL15:
 168              	.LFB164:
  17:Core/Src/BMI088Middleware.c ****     while(ms--)
 169              		.loc 1 17 1 is_stmt 1 view -0
 170              		.cfi_startproc
 171              		@ args = 0, pretend = 0, frame = 0
 172              		@ frame_needed = 0, uses_anonymous_args = 0
  17:Core/Src/BMI088Middleware.c ****     while(ms--)
 173              		.loc 1 17 1 is_stmt 0 view .LVU40
 174 0000 10B5     		push	{r4, lr}
 175              	.LCFI2:
 176              		.cfi_def_cfa_offset 8
 177              		.cfi_offset 4, -8
 178              		.cfi_offset 14, -4
  18:Core/Src/BMI088Middleware.c ****     {
 179              		.loc 1 18 5 is_stmt 1 view .LVU41
  18:Core/Src/BMI088Middleware.c ****     {
 180              		.loc 1 18 10 is_stmt 0 view .LVU42
 181 0002 04E0     		b	.L11
 182              	.LVL16:
 183              	.L12:
  20:Core/Src/BMI088Middleware.c ****     }
 184              		.loc 1 20 9 is_stmt 1 view .LVU43
 185 0004 4FF47A70 		mov	r0, #1000
 186 0008 FFF7FEFF 		bl	BMI088_delay_us
 187              	.LVL17:
  18:Core/Src/BMI088Middleware.c ****     {
 188              		.loc 1 18 13 is_stmt 0 view .LVU44
 189 000c 2046     		mov	r0, r4
 190              	.LVL18:
 191              	.L11:
  18:Core/Src/BMI088Middleware.c ****     {
 192              		.loc 1 18 11 is_stmt 1 view .LVU45
  18:Core/Src/BMI088Middleware.c ****     {
 193              		.loc 1 18 13 is_stmt 0 view .LVU46
 194 000e 431E     		subs	r3, r0, #1
 195 0010 9CB2     		uxth	r4, r3
 196              	.LVL19:
  18:Core/Src/BMI088Middleware.c ****     {
 197              		.loc 1 18 11 view .LVU47
 198 0012 0028     		cmp	r0, #0
 199 0014 F6D1     		bne	.L12
  22:Core/Src/BMI088Middleware.c **** 
 200              		.loc 1 22 1 view .LVU48
 201 0016 10BD     		pop	{r4, pc}
  22:Core/Src/BMI088Middleware.c **** 
 202              		.loc 1 22 1 view .LVU49
 203              		.cfi_endproc
 204              	.LFE164:
 206              		.section	.text.BMI088_ACCEL_NS_L,"ax",%progbits
 207              		.align	1
 208              		.global	BMI088_ACCEL_NS_L
 209              		.syntax unified
 210              		.thumb
 211              		.thumb_func
 213              	BMI088_ACCEL_NS_L:
ARM GAS  /var/folders/w5/30yxzty101lfkjn94y0dlkk00000gn/T//ccYZjDsw.s 			page 6


 214              	.LFB166:
  58:Core/Src/BMI088Middleware.c **** 
  59:Core/Src/BMI088Middleware.c **** 
  60:Core/Src/BMI088Middleware.c **** 
  61:Core/Src/BMI088Middleware.c **** 
  62:Core/Src/BMI088Middleware.c **** void BMI088_ACCEL_NS_L(void)
  63:Core/Src/BMI088Middleware.c **** {
 215              		.loc 1 63 1 is_stmt 1 view -0
 216              		.cfi_startproc
 217              		@ args = 0, pretend = 0, frame = 0
 218              		@ frame_needed = 0, uses_anonymous_args = 0
 219 0000 08B5     		push	{r3, lr}
 220              	.LCFI3:
 221              		.cfi_def_cfa_offset 8
 222              		.cfi_offset 3, -8
 223              		.cfi_offset 14, -4
  64:Core/Src/BMI088Middleware.c ****     HAL_GPIO_WritePin(GPIOA, GPIO_PIN_4, GPIO_PIN_RESET);
 224              		.loc 1 64 5 view .LVU51
 225 0002 0022     		movs	r2, #0
 226 0004 1021     		movs	r1, #16
 227 0006 0248     		ldr	r0, .L16
 228 0008 FFF7FEFF 		bl	HAL_GPIO_WritePin
 229              	.LVL20:
  65:Core/Src/BMI088Middleware.c **** }
 230              		.loc 1 65 1 is_stmt 0 view .LVU52
 231 000c 08BD     		pop	{r3, pc}
 232              	.L17:
 233 000e 00BF     		.align	2
 234              	.L16:
 235 0010 00000240 		.word	1073872896
 236              		.cfi_endproc
 237              	.LFE166:
 239              		.section	.text.BMI088_ACCEL_NS_H,"ax",%progbits
 240              		.align	1
 241              		.global	BMI088_ACCEL_NS_H
 242              		.syntax unified
 243              		.thumb
 244              		.thumb_func
 246              	BMI088_ACCEL_NS_H:
 247              	.LFB167:
  66:Core/Src/BMI088Middleware.c **** void BMI088_ACCEL_NS_H(void)
  67:Core/Src/BMI088Middleware.c **** {
 248              		.loc 1 67 1 is_stmt 1 view -0
 249              		.cfi_startproc
 250              		@ args = 0, pretend = 0, frame = 0
 251              		@ frame_needed = 0, uses_anonymous_args = 0
 252 0000 08B5     		push	{r3, lr}
 253              	.LCFI4:
 254              		.cfi_def_cfa_offset 8
 255              		.cfi_offset 3, -8
 256              		.cfi_offset 14, -4
  68:Core/Src/BMI088Middleware.c ****     HAL_GPIO_WritePin(GPIOA, GPIO_PIN_4, GPIO_PIN_SET);
 257              		.loc 1 68 5 view .LVU54
 258 0002 0122     		movs	r2, #1
 259 0004 1021     		movs	r1, #16
 260 0006 0248     		ldr	r0, .L20
 261 0008 FFF7FEFF 		bl	HAL_GPIO_WritePin
ARM GAS  /var/folders/w5/30yxzty101lfkjn94y0dlkk00000gn/T//ccYZjDsw.s 			page 7


 262              	.LVL21:
  69:Core/Src/BMI088Middleware.c **** }
 263              		.loc 1 69 1 is_stmt 0 view .LVU55
 264 000c 08BD     		pop	{r3, pc}
 265              	.L21:
 266 000e 00BF     		.align	2
 267              	.L20:
 268 0010 00000240 		.word	1073872896
 269              		.cfi_endproc
 270              	.LFE167:
 272              		.section	.text.BMI088_GYRO_NS_L,"ax",%progbits
 273              		.align	1
 274              		.global	BMI088_GYRO_NS_L
 275              		.syntax unified
 276              		.thumb
 277              		.thumb_func
 279              	BMI088_GYRO_NS_L:
 280              	.LFB168:
  70:Core/Src/BMI088Middleware.c **** 
  71:Core/Src/BMI088Middleware.c **** void BMI088_GYRO_NS_L(void)
  72:Core/Src/BMI088Middleware.c **** {
 281              		.loc 1 72 1 is_stmt 1 view -0
 282              		.cfi_startproc
 283              		@ args = 0, pretend = 0, frame = 0
 284              		@ frame_needed = 0, uses_anonymous_args = 0
 285 0000 08B5     		push	{r3, lr}
 286              	.LCFI5:
 287              		.cfi_def_cfa_offset 8
 288              		.cfi_offset 3, -8
 289              		.cfi_offset 14, -4
  73:Core/Src/BMI088Middleware.c ****     HAL_GPIO_WritePin(GPIOB, GPIO_PIN_0, GPIO_PIN_RESET);
 290              		.loc 1 73 5 view .LVU57
 291 0002 0022     		movs	r2, #0
 292 0004 0121     		movs	r1, #1
 293 0006 0248     		ldr	r0, .L24
 294 0008 FFF7FEFF 		bl	HAL_GPIO_WritePin
 295              	.LVL22:
  74:Core/Src/BMI088Middleware.c **** }
 296              		.loc 1 74 1 is_stmt 0 view .LVU58
 297 000c 08BD     		pop	{r3, pc}
 298              	.L25:
 299 000e 00BF     		.align	2
 300              	.L24:
 301 0010 00040240 		.word	1073873920
 302              		.cfi_endproc
 303              	.LFE168:
 305              		.section	.text.BMI088_GYRO_NS_H,"ax",%progbits
 306              		.align	1
 307              		.global	BMI088_GYRO_NS_H
 308              		.syntax unified
 309              		.thumb
 310              		.thumb_func
 312              	BMI088_GYRO_NS_H:
 313              	.LFB169:
  75:Core/Src/BMI088Middleware.c **** void BMI088_GYRO_NS_H(void)
  76:Core/Src/BMI088Middleware.c **** {
 314              		.loc 1 76 1 is_stmt 1 view -0
ARM GAS  /var/folders/w5/30yxzty101lfkjn94y0dlkk00000gn/T//ccYZjDsw.s 			page 8


 315              		.cfi_startproc
 316              		@ args = 0, pretend = 0, frame = 0
 317              		@ frame_needed = 0, uses_anonymous_args = 0
 318 0000 08B5     		push	{r3, lr}
 319              	.LCFI6:
 320              		.cfi_def_cfa_offset 8
 321              		.cfi_offset 3, -8
 322              		.cfi_offset 14, -4
  77:Core/Src/BMI088Middleware.c ****     HAL_GPIO_WritePin(GPIOB, GPIO_PIN_0, GPIO_PIN_SET);
 323              		.loc 1 77 5 view .LVU60
 324 0002 0122     		movs	r2, #1
 325 0004 1146     		mov	r1, r2
 326 0006 0248     		ldr	r0, .L28
 327 0008 FFF7FEFF 		bl	HAL_GPIO_WritePin
 328              	.LVL23:
  78:Core/Src/BMI088Middleware.c **** }
 329              		.loc 1 78 1 is_stmt 0 view .LVU61
 330 000c 08BD     		pop	{r3, pc}
 331              	.L29:
 332 000e 00BF     		.align	2
 333              	.L28:
 334 0010 00040240 		.word	1073873920
 335              		.cfi_endproc
 336              	.LFE169:
 338              		.section	.text.BMI088_read_write_byte,"ax",%progbits
 339              		.align	1
 340              		.global	BMI088_read_write_byte
 341              		.syntax unified
 342              		.thumb
 343              		.thumb_func
 345              	BMI088_read_write_byte:
 346              	.LVL24:
 347              	.LFB170:
  79:Core/Src/BMI088Middleware.c **** 
  80:Core/Src/BMI088Middleware.c **** uint8_t BMI088_read_write_byte(uint8_t txdata)
  81:Core/Src/BMI088Middleware.c **** {
 348              		.loc 1 81 1 is_stmt 1 view -0
 349              		.cfi_startproc
 350              		@ args = 0, pretend = 0, frame = 16
 351              		@ frame_needed = 0, uses_anonymous_args = 0
 352              		.loc 1 81 1 is_stmt 0 view .LVU63
 353 0000 00B5     		push	{lr}
 354              	.LCFI7:
 355              		.cfi_def_cfa_offset 4
 356              		.cfi_offset 14, -4
 357 0002 87B0     		sub	sp, sp, #28
 358              	.LCFI8:
 359              		.cfi_def_cfa_offset 32
 360 0004 8DF80F00 		strb	r0, [sp, #15]
  82:Core/Src/BMI088Middleware.c ****     uint8_t rx_data;
 361              		.loc 1 82 5 is_stmt 1 view .LVU64
  83:Core/Src/BMI088Middleware.c ****     HAL_SPI_TransmitReceive(&hspi1, &txdata, &rx_data, 1, 1000);
 362              		.loc 1 83 5 view .LVU65
 363 0008 4FF47A73 		mov	r3, #1000
 364 000c 0093     		str	r3, [sp]
 365 000e 0123     		movs	r3, #1
 366 0010 0DF11702 		add	r2, sp, #23
ARM GAS  /var/folders/w5/30yxzty101lfkjn94y0dlkk00000gn/T//ccYZjDsw.s 			page 9


 367 0014 0DF10F01 		add	r1, sp, #15
 368 0018 0348     		ldr	r0, .L32
 369              	.LVL25:
 370              		.loc 1 83 5 is_stmt 0 view .LVU66
 371 001a FFF7FEFF 		bl	HAL_SPI_TransmitReceive
 372              	.LVL26:
  84:Core/Src/BMI088Middleware.c ****     return rx_data;
 373              		.loc 1 84 5 is_stmt 1 view .LVU67
  85:Core/Src/BMI088Middleware.c **** }
 374              		.loc 1 85 1 is_stmt 0 view .LVU68
 375 001e 9DF81700 		ldrb	r0, [sp, #23]	@ zero_extendqisi2
 376 0022 07B0     		add	sp, sp, #28
 377              	.LCFI9:
 378              		.cfi_def_cfa_offset 4
 379              		@ sp needed
 380 0024 5DF804FB 		ldr	pc, [sp], #4
 381              	.L33:
 382              		.align	2
 383              	.L32:
 384 0028 00000000 		.word	hspi1
 385              		.cfi_endproc
 386              	.LFE170:
 388              		.text
 389              	.Letext0:
 390              		.file 2 "/Applications/ArmGNUToolchain/13.3.rel1/arm-none-eabi/arm-none-eabi/include/machine/_defa
 391              		.file 3 "/Applications/ArmGNUToolchain/13.3.rel1/arm-none-eabi/arm-none-eabi/include/sys/_stdint.h
 392              		.file 4 "Drivers/CMSIS/Include/core_cm4.h"
 393              		.file 5 "Drivers/CMSIS/Device/ST/STM32F4xx/Include/stm32f407xx.h"
 394              		.file 6 "Drivers/STM32F4xx_HAL_Driver/Inc/stm32f4xx_hal_def.h"
 395              		.file 7 "Drivers/STM32F4xx_HAL_Driver/Inc/stm32f4xx_hal_gpio.h"
 396              		.file 8 "Drivers/STM32F4xx_HAL_Driver/Inc/stm32f4xx_hal_dma.h"
 397              		.file 9 "Drivers/STM32F4xx_HAL_Driver/Inc/stm32f4xx_hal_spi.h"
ARM GAS  /var/folders/w5/30yxzty101lfkjn94y0dlkk00000gn/T//ccYZjDsw.s 			page 10


DEFINED SYMBOLS
                            *ABS*:00000000 BMI088Middleware.c
/var/folders/w5/30yxzty101lfkjn94y0dlkk00000gn/T//ccYZjDsw.s:21     .text.BMI088_GPIO_init:00000000 $t
/var/folders/w5/30yxzty101lfkjn94y0dlkk00000gn/T//ccYZjDsw.s:27     .text.BMI088_GPIO_init:00000000 BMI088_GPIO_init
/var/folders/w5/30yxzty101lfkjn94y0dlkk00000gn/T//ccYZjDsw.s:40     .text.BMI088_com_init:00000000 $t
/var/folders/w5/30yxzty101lfkjn94y0dlkk00000gn/T//ccYZjDsw.s:46     .text.BMI088_com_init:00000000 BMI088_com_init
/var/folders/w5/30yxzty101lfkjn94y0dlkk00000gn/T//ccYZjDsw.s:59     .text.BMI088_delay_us:00000000 $t
/var/folders/w5/30yxzty101lfkjn94y0dlkk00000gn/T//ccYZjDsw.s:65     .text.BMI088_delay_us:00000000 BMI088_delay_us
/var/folders/w5/30yxzty101lfkjn94y0dlkk00000gn/T//ccYZjDsw.s:160    .text.BMI088_delay_ms:00000000 $t
/var/folders/w5/30yxzty101lfkjn94y0dlkk00000gn/T//ccYZjDsw.s:166    .text.BMI088_delay_ms:00000000 BMI088_delay_ms
/var/folders/w5/30yxzty101lfkjn94y0dlkk00000gn/T//ccYZjDsw.s:207    .text.BMI088_ACCEL_NS_L:00000000 $t
/var/folders/w5/30yxzty101lfkjn94y0dlkk00000gn/T//ccYZjDsw.s:213    .text.BMI088_ACCEL_NS_L:00000000 BMI088_ACCEL_NS_L
/var/folders/w5/30yxzty101lfkjn94y0dlkk00000gn/T//ccYZjDsw.s:235    .text.BMI088_ACCEL_NS_L:00000010 $d
/var/folders/w5/30yxzty101lfkjn94y0dlkk00000gn/T//ccYZjDsw.s:240    .text.BMI088_ACCEL_NS_H:00000000 $t
/var/folders/w5/30yxzty101lfkjn94y0dlkk00000gn/T//ccYZjDsw.s:246    .text.BMI088_ACCEL_NS_H:00000000 BMI088_ACCEL_NS_H
/var/folders/w5/30yxzty101lfkjn94y0dlkk00000gn/T//ccYZjDsw.s:268    .text.BMI088_ACCEL_NS_H:00000010 $d
/var/folders/w5/30yxzty101lfkjn94y0dlkk00000gn/T//ccYZjDsw.s:273    .text.BMI088_GYRO_NS_L:00000000 $t
/var/folders/w5/30yxzty101lfkjn94y0dlkk00000gn/T//ccYZjDsw.s:279    .text.BMI088_GYRO_NS_L:00000000 BMI088_GYRO_NS_L
/var/folders/w5/30yxzty101lfkjn94y0dlkk00000gn/T//ccYZjDsw.s:301    .text.BMI088_GYRO_NS_L:00000010 $d
/var/folders/w5/30yxzty101lfkjn94y0dlkk00000gn/T//ccYZjDsw.s:306    .text.BMI088_GYRO_NS_H:00000000 $t
/var/folders/w5/30yxzty101lfkjn94y0dlkk00000gn/T//ccYZjDsw.s:312    .text.BMI088_GYRO_NS_H:00000000 BMI088_GYRO_NS_H
/var/folders/w5/30yxzty101lfkjn94y0dlkk00000gn/T//ccYZjDsw.s:334    .text.BMI088_GYRO_NS_H:00000010 $d
/var/folders/w5/30yxzty101lfkjn94y0dlkk00000gn/T//ccYZjDsw.s:339    .text.BMI088_read_write_byte:00000000 $t
/var/folders/w5/30yxzty101lfkjn94y0dlkk00000gn/T//ccYZjDsw.s:345    .text.BMI088_read_write_byte:00000000 BMI088_read_write_byte
/var/folders/w5/30yxzty101lfkjn94y0dlkk00000gn/T//ccYZjDsw.s:384    .text.BMI088_read_write_byte:00000028 $d

UNDEFINED SYMBOLS
HAL_GPIO_WritePin
HAL_SPI_TransmitReceive
hspi1
