ARM GAS  /var/folders/w9/l2kswtfn3fs2kslkvv5vg9sh0000gn/T//ccWyXPHc.s 			page 1


   1              		.cpu cortex-m4
   2              		.arch armv7e-m
   3              		.fpu fpv4-sp-d16
   4              		.eabi_attribute 27, 1
   5              		.eabi_attribute 28, 1
   6              		.eabi_attribute 20, 1
   7              		.eabi_attribute 21, 1
   8              		.eabi_attribute 23, 3
   9              		.eabi_attribute 24, 1
  10              		.eabi_attribute 25, 1
  11              		.eabi_attribute 26, 1
  12              		.eabi_attribute 30, 1
  13              		.eabi_attribute 34, 1
  14              		.eabi_attribute 18, 4
  15              		.file	"bsp_can.c"
  16              		.text
  17              	.Ltext0:
  18              		.cfi_sections	.debug_frame
  19              		.file 1 "Core/Src/bsp_can.c"
  20              		.section	.text.can_filter_init,"ax",%progbits
  21              		.align	1
  22              		.global	can_filter_init
  23              		.syntax unified
  24              		.thumb
  25              		.thumb_func
  27              	can_filter_init:
  28              	.LFB134:
   1:Core/Src/bsp_can.c **** //bsp_can.c
   2:Core/Src/bsp_can.c **** //2023.10.20
   3:Core/Src/bsp_can.c **** //by gjx
   4:Core/Src/bsp_can.c **** #include "bsp_can.h"
   5:Core/Src/bsp_can.c **** #include "main.h"
   6:Core/Src/bsp_can.c **** 
   7:Core/Src/bsp_can.c **** extern CAN_HandleTypeDef hcan1;
   8:Core/Src/bsp_can.c **** extern CAN_HandleTypeDef hcan2;
   9:Core/Src/bsp_can.c **** 
  10:Core/Src/bsp_can.c **** void can_filter_init(void)
  11:Core/Src/bsp_can.c **** {
  29              		.loc 1 11 1 view -0
  30              		.cfi_startproc
  31              		@ args = 0, pretend = 0, frame = 40
  32              		@ frame_needed = 0, uses_anonymous_args = 0
  33 0000 30B5     		push	{r4, r5, lr}
  34              	.LCFI0:
  35              		.cfi_def_cfa_offset 12
  36              		.cfi_offset 4, -12
  37              		.cfi_offset 5, -8
  38              		.cfi_offset 14, -4
  39 0002 8BB0     		sub	sp, sp, #44
  40              	.LCFI1:
  41              		.cfi_def_cfa_offset 56
  12:Core/Src/bsp_can.c **** 
  13:Core/Src/bsp_can.c ****     CAN_FilterTypeDef can_filter_st;
  42              		.loc 1 13 5 view .LVU1
  14:Core/Src/bsp_can.c ****     can_filter_st.FilterActivation = ENABLE;
  43              		.loc 1 14 5 view .LVU2
  44              		.loc 1 14 36 is_stmt 0 view .LVU3
ARM GAS  /var/folders/w9/l2kswtfn3fs2kslkvv5vg9sh0000gn/T//ccWyXPHc.s 			page 2


  45 0004 0122     		movs	r2, #1
  46 0006 0892     		str	r2, [sp, #32]
  15:Core/Src/bsp_can.c ****     can_filter_st.FilterMode = CAN_FILTERMODE_IDMASK;
  47              		.loc 1 15 5 is_stmt 1 view .LVU4
  48              		.loc 1 15 30 is_stmt 0 view .LVU5
  49 0008 0023     		movs	r3, #0
  50 000a 0693     		str	r3, [sp, #24]
  16:Core/Src/bsp_can.c ****     can_filter_st.FilterScale = CAN_FILTERSCALE_32BIT;
  51              		.loc 1 16 5 is_stmt 1 view .LVU6
  52              		.loc 1 16 31 is_stmt 0 view .LVU7
  53 000c 0792     		str	r2, [sp, #28]
  17:Core/Src/bsp_can.c ****     can_filter_st.FilterIdHigh = 0x0000;
  54              		.loc 1 17 5 is_stmt 1 view .LVU8
  55              		.loc 1 17 32 is_stmt 0 view .LVU9
  56 000e 0093     		str	r3, [sp]
  18:Core/Src/bsp_can.c ****     can_filter_st.FilterIdLow = 0x0000;
  57              		.loc 1 18 5 is_stmt 1 view .LVU10
  58              		.loc 1 18 31 is_stmt 0 view .LVU11
  59 0010 0193     		str	r3, [sp, #4]
  19:Core/Src/bsp_can.c ****     can_filter_st.FilterMaskIdHigh = 0x0000;
  60              		.loc 1 19 5 is_stmt 1 view .LVU12
  61              		.loc 1 19 36 is_stmt 0 view .LVU13
  62 0012 0293     		str	r3, [sp, #8]
  20:Core/Src/bsp_can.c ****     can_filter_st.FilterMaskIdLow = 0x0000;  //홍쌈澗，꼇팁귁
  63              		.loc 1 20 5 is_stmt 1 view .LVU14
  64              		.loc 1 20 35 is_stmt 0 view .LVU15
  65 0014 0393     		str	r3, [sp, #12]
  21:Core/Src/bsp_can.c ****     can_filter_st.FilterBank = 0;
  66              		.loc 1 21 5 is_stmt 1 view .LVU16
  67              		.loc 1 21 30 is_stmt 0 view .LVU17
  68 0016 0593     		str	r3, [sp, #20]
  22:Core/Src/bsp_can.c ****     can_filter_st.FilterFIFOAssignment = CAN_RX_FIFO0;
  69              		.loc 1 22 5 is_stmt 1 view .LVU18
  70              		.loc 1 22 40 is_stmt 0 view .LVU19
  71 0018 0493     		str	r3, [sp, #16]
  23:Core/Src/bsp_can.c ****     HAL_CAN_ConfigFilter(&hcan1, &can_filter_st);
  72              		.loc 1 23 5 is_stmt 1 view .LVU20
  73 001a 0E4C     		ldr	r4, .L3
  74 001c 6946     		mov	r1, sp
  75 001e 2046     		mov	r0, r4
  76 0020 FFF7FEFF 		bl	HAL_CAN_ConfigFilter
  77              	.LVL0:
  24:Core/Src/bsp_can.c ****     HAL_CAN_Start(&hcan1);
  78              		.loc 1 24 5 view .LVU21
  79 0024 2046     		mov	r0, r4
  80 0026 FFF7FEFF 		bl	HAL_CAN_Start
  81              	.LVL1:
  25:Core/Src/bsp_can.c ****     HAL_CAN_ActivateNotification(&hcan1, CAN_IT_RX_FIFO0_MSG_PENDING);
  82              		.loc 1 25 5 view .LVU22
  83 002a 0221     		movs	r1, #2
  84 002c 2046     		mov	r0, r4
  85 002e FFF7FEFF 		bl	HAL_CAN_ActivateNotification
  86              	.LVL2:
  26:Core/Src/bsp_can.c **** 
  27:Core/Src/bsp_can.c **** 
  28:Core/Src/bsp_can.c ****     can_filter_st.SlaveStartFilterBank = 14;
  87              		.loc 1 28 5 view .LVU23
ARM GAS  /var/folders/w9/l2kswtfn3fs2kslkvv5vg9sh0000gn/T//ccWyXPHc.s 			page 3


  88              		.loc 1 28 40 is_stmt 0 view .LVU24
  89 0032 0E23     		movs	r3, #14
  90 0034 0993     		str	r3, [sp, #36]
  29:Core/Src/bsp_can.c ****     can_filter_st.FilterBank = 14;
  91              		.loc 1 29 5 is_stmt 1 view .LVU25
  92              		.loc 1 29 30 is_stmt 0 view .LVU26
  93 0036 0593     		str	r3, [sp, #20]
  30:Core/Src/bsp_can.c ****     HAL_CAN_ConfigFilter(&hcan2, &can_filter_st);
  94              		.loc 1 30 5 is_stmt 1 view .LVU27
  95 0038 074C     		ldr	r4, .L3+4
  96 003a 6946     		mov	r1, sp
  97 003c 2046     		mov	r0, r4
  98 003e FFF7FEFF 		bl	HAL_CAN_ConfigFilter
  99              	.LVL3:
  31:Core/Src/bsp_can.c ****     HAL_CAN_Start(&hcan2);
 100              		.loc 1 31 5 view .LVU28
 101 0042 2046     		mov	r0, r4
 102 0044 FFF7FEFF 		bl	HAL_CAN_Start
 103              	.LVL4:
  32:Core/Src/bsp_can.c ****     HAL_CAN_ActivateNotification(&hcan2, CAN_IT_RX_FIFO0_MSG_PENDING);
 104              		.loc 1 32 5 view .LVU29
 105 0048 0221     		movs	r1, #2
 106 004a 2046     		mov	r0, r4
 107 004c FFF7FEFF 		bl	HAL_CAN_ActivateNotification
 108              	.LVL5:
  33:Core/Src/bsp_can.c **** 
  34:Core/Src/bsp_can.c **** 
  35:Core/Src/bsp_can.c **** 
  36:Core/Src/bsp_can.c **** }
 109              		.loc 1 36 1 is_stmt 0 view .LVU30
 110 0050 0BB0     		add	sp, sp, #44
 111              	.LCFI2:
 112              		.cfi_def_cfa_offset 12
 113              		@ sp needed
 114 0052 30BD     		pop	{r4, r5, pc}
 115              	.L4:
 116              		.align	2
 117              	.L3:
 118 0054 00000000 		.word	hcan1
 119 0058 00000000 		.word	hcan2
 120              		.cfi_endproc
 121              	.LFE134:
 123              		.text
 124              	.Letext0:
 125              		.file 2 "/opt/ST/STM32CubeCLT_1.21.0/GNU-tools-for-STM32/arm-none-eabi/include/machine/_default_ty
 126              		.file 3 "/opt/ST/STM32CubeCLT_1.21.0/GNU-tools-for-STM32/arm-none-eabi/include/sys/_stdint.h"
 127              		.file 4 "Drivers/CMSIS/Device/ST/STM32F4xx/Include/stm32f407xx.h"
 128              		.file 5 "Drivers/CMSIS/Device/ST/STM32F4xx/Include/stm32f4xx.h"
 129              		.file 6 "Drivers/STM32F4xx_HAL_Driver/Inc/stm32f4xx_hal_def.h"
 130              		.file 7 "Drivers/STM32F4xx_HAL_Driver/Inc/stm32f4xx_hal_can.h"
ARM GAS  /var/folders/w9/l2kswtfn3fs2kslkvv5vg9sh0000gn/T//ccWyXPHc.s 			page 4

