ARM GAS  /var/folders/w5/30yxzty101lfkjn94y0dlkk00000gn/T//ccZN72BR.s 			page 1


   1              		.cpu cortex-m4
   2              		.arch armv7e-m
   3              		.fpu fpv4-sp-d16
   4              		.eabi_attribute 27, 1
   5              		.eabi_attribute 28, 1
   6              		.eabi_attribute 20, 1
   7              		.eabi_attribute 21, 1
   8              		.eabi_attribute 23, 3
   9              		.eabi_attribute 24, 1
  10              		.eabi_attribute 25, 1
  11              		.eabi_attribute 26, 1
  12              		.eabi_attribute 30, 1
  13              		.eabi_attribute 34, 1
  14              		.eabi_attribute 18, 4
  15              		.file	"CAN_receive.c"
  16              		.text
  17              	.Ltext0:
  18              		.cfi_sections	.debug_frame
  19              		.file 1 "Core/Src/CAN_receive.c"
  20              		.section	.text.HAL_CAN_RxFifo0MsgPendingCallback,"ax",%progbits
  21              		.align	1
  22              		.global	HAL_CAN_RxFifo0MsgPendingCallback
  23              		.syntax unified
  24              		.thumb
  25              		.thumb_func
  27              	HAL_CAN_RxFifo0MsgPendingCallback:
  28              	.LVL0:
  29              	.LFB162:
   1:Core/Src/CAN_receive.c **** 
   2:Core/Src/CAN_receive.c **** #include "CAN_receive.h"
   3:Core/Src/CAN_receive.c **** #include "main.h"
   4:Core/Src/CAN_receive.c **** 
   5:Core/Src/CAN_receive.c **** 
   6:Core/Src/CAN_receive.c **** 
   7:Core/Src/CAN_receive.c **** extern CAN_HandleTypeDef hcan1;
   8:Core/Src/CAN_receive.c **** extern CAN_HandleTypeDef hcan2;
   9:Core/Src/CAN_receive.c **** //motor data read
  10:Core/Src/CAN_receive.c **** #define get_motor_measure(ptr, data)                                    \
  11:Core/Src/CAN_receive.c ****     {                                                                   \
  12:Core/Src/CAN_receive.c ****         (ptr)->last_ecd = (ptr)->ecd;                                   \
  13:Core/Src/CAN_receive.c ****         (ptr)->ecd = (uint16_t)((data)[0] << 8 | (data)[1]);            \
  14:Core/Src/CAN_receive.c ****         (ptr)->speed_rpm = (uint16_t)((data)[2] << 8 | (data)[3]);      \
  15:Core/Src/CAN_receive.c ****         (ptr)->given_current = (uint16_t)((data)[4] << 8 | (data)[5]);  \
  16:Core/Src/CAN_receive.c ****         (ptr)->temperate = (data)[6];                                   \
  17:Core/Src/CAN_receive.c ****     }
  18:Core/Src/CAN_receive.c **** /*
  19:Core/Src/CAN_receive.c **** motor data,  0:chassis motor1 3508;1:chassis motor3 3508;2:chassis motor3 3508;3:chassis motor4 350
  20:Core/Src/CAN_receive.c **** 4:yaw gimbal motor 6020;5:pitch gimbal motor 6020;6:trigger motor 2006;
  21:Core/Src/CAN_receive.c **** 电机数据, 0:底盘电机1 3508电机,  1:底盘电机2 3508电机,2:底盘电机3 3508电机,3:底盘电机4 3508电机;
  22:Core/Src/CAN_receive.c **** 4:yaw云台电机 6020电机; 5:pitch云台电机 6020电机; 6:拨弹电机 2006电机*/
  23:Core/Src/CAN_receive.c **** 
  24:Core/Src/CAN_receive.c **** motor_measure_t motor_chassis[7];
  25:Core/Src/CAN_receive.c **** 		
  26:Core/Src/CAN_receive.c **** static CAN_TxHeaderTypeDef  gimbal_tx_message;
  27:Core/Src/CAN_receive.c **** static uint8_t              gimbal_can_send_data[8];
  28:Core/Src/CAN_receive.c **** static CAN_TxHeaderTypeDef  chassis_tx_message;
  29:Core/Src/CAN_receive.c **** static uint8_t              chassis_can_send_data[8];
ARM GAS  /var/folders/w5/30yxzty101lfkjn94y0dlkk00000gn/T//ccZN72BR.s 			page 2


  30:Core/Src/CAN_receive.c **** 
  31:Core/Src/CAN_receive.c **** /**
  32:Core/Src/CAN_receive.c ****   * @brief          hal CAN fifo call back, receive motor data
  33:Core/Src/CAN_receive.c ****   * @param[in]      hcan, the point to CAN handle
  34:Core/Src/CAN_receive.c ****   * @retval         none
  35:Core/Src/CAN_receive.c ****   */
  36:Core/Src/CAN_receive.c **** /**
  37:Core/Src/CAN_receive.c ****   * @brief          hal库CAN回调函数,接收电机数据
  38:Core/Src/CAN_receive.c ****   * @param[in]      hcan:CAN句柄指针
  39:Core/Src/CAN_receive.c ****   * @retval         none
  40:Core/Src/CAN_receive.c ****   */
  41:Core/Src/CAN_receive.c **** void HAL_CAN_RxFifo0MsgPendingCallback(CAN_HandleTypeDef *hcan)
  42:Core/Src/CAN_receive.c **** {
  30              		.loc 1 42 1 view -0
  31              		.cfi_startproc
  32              		@ args = 0, pretend = 0, frame = 40
  33              		@ frame_needed = 0, uses_anonymous_args = 0
  34              		.loc 1 42 1 is_stmt 0 view .LVU1
  35 0000 00B5     		push	{lr}
  36              	.LCFI0:
  37              		.cfi_def_cfa_offset 4
  38              		.cfi_offset 14, -4
  39 0002 8BB0     		sub	sp, sp, #44
  40              	.LCFI1:
  41              		.cfi_def_cfa_offset 48
  43:Core/Src/CAN_receive.c ****     CAN_RxHeaderTypeDef rx_header;
  42              		.loc 1 43 5 is_stmt 1 view .LVU2
  44:Core/Src/CAN_receive.c ****     uint8_t rx_data[8];
  43              		.loc 1 44 5 view .LVU3
  45:Core/Src/CAN_receive.c **** 
  46:Core/Src/CAN_receive.c ****     HAL_CAN_GetRxMessage(hcan, CAN_RX_FIFO0, &rx_header, rx_data);
  44              		.loc 1 46 5 view .LVU4
  45 0004 01AB     		add	r3, sp, #4
  46 0006 03AA     		add	r2, sp, #12
  47 0008 0021     		movs	r1, #0
  48 000a FFF7FEFF 		bl	HAL_CAN_GetRxMessage
  49              	.LVL1:
  47:Core/Src/CAN_receive.c **** 
  48:Core/Src/CAN_receive.c ****     switch (rx_header.StdId)
  50              		.loc 1 48 5 view .LVU5
  51              		.loc 1 48 22 is_stmt 0 view .LVU6
  52 000e 039B     		ldr	r3, [sp, #12]
  53              		.loc 1 48 5 view .LVU7
  54 0010 A3F20122 		subw	r2, r3, #513
  55 0014 062A     		cmp	r2, #6
  56 0016 2DD8     		bhi	.L1
  57              	.LBB2:
  49:Core/Src/CAN_receive.c ****     {
  50:Core/Src/CAN_receive.c ****         case CAN_3508_M1_ID:
  51:Core/Src/CAN_receive.c ****         case CAN_3508_M2_ID:
  52:Core/Src/CAN_receive.c ****         case CAN_3508_M3_ID:
  53:Core/Src/CAN_receive.c ****         case CAN_3508_M4_ID:
  54:Core/Src/CAN_receive.c ****         case CAN_YAW_MOTOR_ID:
  55:Core/Src/CAN_receive.c ****         case CAN_PIT_MOTOR_ID:
  56:Core/Src/CAN_receive.c ****         case CAN_TRIGGER_MOTOR_ID:
  57:Core/Src/CAN_receive.c ****         {
  58:Core/Src/CAN_receive.c ****             static uint8_t i = 0;
ARM GAS  /var/folders/w5/30yxzty101lfkjn94y0dlkk00000gn/T//ccZN72BR.s 			page 3


  58              		.loc 1 58 13 is_stmt 1 view .LVU8
  59:Core/Src/CAN_receive.c ****             //get motor id
  60:Core/Src/CAN_receive.c ****             i = rx_header.StdId - CAN_3508_M1_ID; //自己减去自己为0，其他电机id类推
  59              		.loc 1 60 13 view .LVU9
  60              		.loc 1 60 33 is_stmt 0 view .LVU10
  61 0018 013B     		subs	r3, r3, #1
  62 001a DBB2     		uxtb	r3, r3
  63              		.loc 1 60 15 view .LVU11
  64 001c 174A     		ldr	r2, .L4
  65 001e 1370     		strb	r3, [r2]
  61:Core/Src/CAN_receive.c ****             get_motor_measure(&motor_chassis[i], rx_data);
  66              		.loc 1 61 13 is_stmt 1 view .LVU12
  67 0020 1749     		ldr	r1, .L4+4
  68 0022 03EB8300 		add	r0, r3, r3, lsl #2
  69 0026 4200     		lsls	r2, r0, #1
  70 0028 8818     		adds	r0, r1, r2
  71 002a 31F902C0 		ldrsh	ip, [r1, r2]
  72 002e A0F808C0 		strh	ip, [r0, #8]	@ movhi
  73              		.loc 1 61 13 view .LVU13
  74 0032 9DF804E0 		ldrb	lr, [sp, #4]	@ zero_extendqisi2
  75 0036 9DF805C0 		ldrb	ip, [sp, #5]	@ zero_extendqisi2
  76 003a 4CEA0E2C 		orr	ip, ip, lr, lsl #8
  77 003e 21F802C0 		strh	ip, [r1, r2]	@ movhi
  78              		.loc 1 61 13 view .LVU14
  79 0042 9DF80620 		ldrb	r2, [sp, #6]	@ zero_extendqisi2
  80 0046 1202     		lsls	r2, r2, #8
  81 0048 12B2     		sxth	r2, r2
  82 004a 9DF807C0 		ldrb	ip, [sp, #7]	@ zero_extendqisi2
  83 004e 42EA0C02 		orr	r2, r2, ip
  84 0052 4280     		strh	r2, [r0, #2]	@ movhi
  85              		.loc 1 61 13 view .LVU15
  86 0054 9DF80820 		ldrb	r2, [sp, #8]	@ zero_extendqisi2
  87 0058 1202     		lsls	r2, r2, #8
  88 005a 12B2     		sxth	r2, r2
  89 005c 9DF809C0 		ldrb	ip, [sp, #9]	@ zero_extendqisi2
  90 0060 42EA0C02 		orr	r2, r2, ip
  91 0064 8280     		strh	r2, [r0, #4]	@ movhi
  92              		.loc 1 61 13 view .LVU16
  93 0066 9DF80A00 		ldrb	r0, [sp, #10]	@ zero_extendqisi2
  94 006a 03EB8303 		add	r3, r3, r3, lsl #2
  95 006e 5A00     		lsls	r2, r3, #1
  96 0070 8B18     		adds	r3, r1, r2
  97 0072 9871     		strb	r0, [r3, #6]
  98              		.loc 1 61 58 view .LVU17
  62:Core/Src/CAN_receive.c ****             break;
  99              		.loc 1 62 13 view .LVU18
 100              	.L1:
 101              	.LBE2:
  63:Core/Src/CAN_receive.c ****         }
  64:Core/Src/CAN_receive.c **** 
  65:Core/Src/CAN_receive.c ****         default:
  66:Core/Src/CAN_receive.c ****         {
  67:Core/Src/CAN_receive.c ****             break;
  68:Core/Src/CAN_receive.c ****         }
  69:Core/Src/CAN_receive.c ****     }
  70:Core/Src/CAN_receive.c **** }
 102              		.loc 1 70 1 is_stmt 0 view .LVU19
ARM GAS  /var/folders/w5/30yxzty101lfkjn94y0dlkk00000gn/T//ccZN72BR.s 			page 4


 103 0074 0BB0     		add	sp, sp, #44
 104              	.LCFI2:
 105              		.cfi_def_cfa_offset 4
 106              		@ sp needed
 107 0076 5DF804FB 		ldr	pc, [sp], #4
 108              	.L5:
 109 007a 00BF     		.align	2
 110              	.L4:
 111 007c 00000000 		.word	i.0
 112 0080 00000000 		.word	motor_chassis
 113              		.cfi_endproc
 114              	.LFE162:
 116              		.section	.text.CAN_cmd_gimbal,"ax",%progbits
 117              		.align	1
 118              		.global	CAN_cmd_gimbal
 119              		.syntax unified
 120              		.thumb
 121              		.thumb_func
 123              	CAN_cmd_gimbal:
 124              	.LVL2:
 125              	.LFB163:
  71:Core/Src/CAN_receive.c **** 
  72:Core/Src/CAN_receive.c **** 
  73:Core/Src/CAN_receive.c **** 
  74:Core/Src/CAN_receive.c **** /**
  75:Core/Src/CAN_receive.c ****   * @brief          send control current of motor (0x205, 0x206, 0x207, 0x208)
  76:Core/Src/CAN_receive.c ****   * @param[in]      yaw: (0x205) 6020 motor control current, range [-30000,30000] 
  77:Core/Src/CAN_receive.c ****   * @param[in]      pitch: (0x206) 6020 motor control current, range [-30000,30000]
  78:Core/Src/CAN_receive.c ****   * @param[in]      shoot: (0x207) 2006 motor control current, range [-10000,10000]
  79:Core/Src/CAN_receive.c ****   * @param[in]      rev: (0x208) reserve motor control current
  80:Core/Src/CAN_receive.c ****   * @retval         none
  81:Core/Src/CAN_receive.c ****   */
  82:Core/Src/CAN_receive.c **** /**
  83:Core/Src/CAN_receive.c ****   * @brief          发送电机控制电流(0x205,0x206,0x207,0x208)
  84:Core/Src/CAN_receive.c ****   * @param[in]      yaw: (0x205) 6020电机控制电流, 范围 [-30000,30000]
  85:Core/Src/CAN_receive.c ****   * @param[in]      pitch: (0x206) 6020电机控制电流, 范围 [-30000,30000]
  86:Core/Src/CAN_receive.c ****   * @param[in]      shoot: (0x207) 2006电机控制电流, 范围 [-10000,10000]
  87:Core/Src/CAN_receive.c ****   * @param[in]      rev: (0x208) 保留，电机控制电流
  88:Core/Src/CAN_receive.c ****   * @retval         none
  89:Core/Src/CAN_receive.c ****   */
  90:Core/Src/CAN_receive.c **** void CAN_cmd_gimbal(int16_t yaw, int16_t pitch, int16_t shoot, int16_t rev)
  91:Core/Src/CAN_receive.c **** {
 126              		.loc 1 91 1 is_stmt 1 view -0
 127              		.cfi_startproc
 128              		@ args = 0, pretend = 0, frame = 8
 129              		@ frame_needed = 0, uses_anonymous_args = 0
 130              		.loc 1 91 1 is_stmt 0 view .LVU21
 131 0000 10B5     		push	{r4, lr}
 132              	.LCFI3:
 133              		.cfi_def_cfa_offset 8
 134              		.cfi_offset 4, -8
 135              		.cfi_offset 14, -4
 136 0002 82B0     		sub	sp, sp, #8
 137              	.LCFI4:
 138              		.cfi_def_cfa_offset 16
 139 0004 8E46     		mov	lr, r1
 140 0006 9446     		mov	ip, r2
ARM GAS  /var/folders/w5/30yxzty101lfkjn94y0dlkk00000gn/T//ccZN72BR.s 			page 5


  92:Core/Src/CAN_receive.c ****     uint32_t send_mail_box;
 141              		.loc 1 92 5 is_stmt 1 view .LVU22
  93:Core/Src/CAN_receive.c ****     gimbal_tx_message.StdId = CAN_GIMBAL_ALL_ID;
 142              		.loc 1 93 5 view .LVU23
 143              		.loc 1 93 29 is_stmt 0 view .LVU24
 144 0008 0F49     		ldr	r1, .L8
 145              	.LVL3:
 146              		.loc 1 93 29 view .LVU25
 147 000a 40F2FF12 		movw	r2, #511
 148              	.LVL4:
 149              		.loc 1 93 29 view .LVU26
 150 000e 0A60     		str	r2, [r1]
  94:Core/Src/CAN_receive.c ****     gimbal_tx_message.IDE = CAN_ID_STD;
 151              		.loc 1 94 5 is_stmt 1 view .LVU27
 152              		.loc 1 94 27 is_stmt 0 view .LVU28
 153 0010 0022     		movs	r2, #0
 154 0012 8A60     		str	r2, [r1, #8]
  95:Core/Src/CAN_receive.c ****     gimbal_tx_message.RTR = CAN_RTR_DATA;
 155              		.loc 1 95 5 is_stmt 1 view .LVU29
 156              		.loc 1 95 27 is_stmt 0 view .LVU30
 157 0014 CA60     		str	r2, [r1, #12]
  96:Core/Src/CAN_receive.c ****     gimbal_tx_message.DLC = 0x08;
 158              		.loc 1 96 5 is_stmt 1 view .LVU31
 159              		.loc 1 96 27 is_stmt 0 view .LVU32
 160 0016 0822     		movs	r2, #8
 161 0018 0A61     		str	r2, [r1, #16]
  97:Core/Src/CAN_receive.c ****     gimbal_can_send_data[0] = (yaw >> 8);
 162              		.loc 1 97 5 is_stmt 1 view .LVU33
 163              		.loc 1 97 29 is_stmt 0 view .LVU34
 164 001a 0C4A     		ldr	r2, .L8+4
 165 001c 0412     		asrs	r4, r0, #8
 166 001e 1470     		strb	r4, [r2]
  98:Core/Src/CAN_receive.c ****     gimbal_can_send_data[1] = yaw;
 167              		.loc 1 98 5 is_stmt 1 view .LVU35
 168              		.loc 1 98 29 is_stmt 0 view .LVU36
 169 0020 5070     		strb	r0, [r2, #1]
  99:Core/Src/CAN_receive.c ****     gimbal_can_send_data[2] = (pitch >> 8);
 170              		.loc 1 99 5 is_stmt 1 view .LVU37
 171              		.loc 1 99 29 is_stmt 0 view .LVU38
 172 0022 4FEA2E20 		asr	r0, lr, #8
 173              	.LVL5:
 174              		.loc 1 99 29 view .LVU39
 175 0026 9070     		strb	r0, [r2, #2]
 100:Core/Src/CAN_receive.c ****     gimbal_can_send_data[3] = pitch;
 176              		.loc 1 100 5 is_stmt 1 view .LVU40
 177              		.loc 1 100 29 is_stmt 0 view .LVU41
 178 0028 82F803E0 		strb	lr, [r2, #3]
 101:Core/Src/CAN_receive.c ****     gimbal_can_send_data[4] = (shoot >> 8);
 179              		.loc 1 101 5 is_stmt 1 view .LVU42
 180              		.loc 1 101 29 is_stmt 0 view .LVU43
 181 002c 4FEA2C20 		asr	r0, ip, #8
 182 0030 1071     		strb	r0, [r2, #4]
 102:Core/Src/CAN_receive.c ****     gimbal_can_send_data[5] = shoot;
 183              		.loc 1 102 5 is_stmt 1 view .LVU44
 184              		.loc 1 102 29 is_stmt 0 view .LVU45
 185 0032 82F805C0 		strb	ip, [r2, #5]
 103:Core/Src/CAN_receive.c ****     gimbal_can_send_data[6] = (rev >> 8);
ARM GAS  /var/folders/w5/30yxzty101lfkjn94y0dlkk00000gn/T//ccZN72BR.s 			page 6


 186              		.loc 1 103 5 is_stmt 1 view .LVU46
 187              		.loc 1 103 29 is_stmt 0 view .LVU47
 188 0036 1812     		asrs	r0, r3, #8
 189 0038 9071     		strb	r0, [r2, #6]
 104:Core/Src/CAN_receive.c ****     gimbal_can_send_data[7] = rev;
 190              		.loc 1 104 5 is_stmt 1 view .LVU48
 191              		.loc 1 104 29 is_stmt 0 view .LVU49
 192 003a D371     		strb	r3, [r2, #7]
 105:Core/Src/CAN_receive.c ****     HAL_CAN_AddTxMessage(&GIMBAL_CAN, &gimbal_tx_message, gimbal_can_send_data, &send_mail_box);
 193              		.loc 1 105 5 is_stmt 1 view .LVU50
 194 003c 01AB     		add	r3, sp, #4
 195              	.LVL6:
 196              		.loc 1 105 5 is_stmt 0 view .LVU51
 197 003e 0448     		ldr	r0, .L8+8
 198 0040 FFF7FEFF 		bl	HAL_CAN_AddTxMessage
 199              	.LVL7:
 106:Core/Src/CAN_receive.c **** }
 200              		.loc 1 106 1 view .LVU52
 201 0044 02B0     		add	sp, sp, #8
 202              	.LCFI5:
 203              		.cfi_def_cfa_offset 8
 204              		@ sp needed
 205 0046 10BD     		pop	{r4, pc}
 206              	.L9:
 207              		.align	2
 208              	.L8:
 209 0048 00000000 		.word	gimbal_tx_message
 210 004c 00000000 		.word	gimbal_can_send_data
 211 0050 00000000 		.word	hcan2
 212              		.cfi_endproc
 213              	.LFE163:
 215              		.section	.text.CAN_cmd_chassis_reset_ID,"ax",%progbits
 216              		.align	1
 217              		.global	CAN_cmd_chassis_reset_ID
 218              		.syntax unified
 219              		.thumb
 220              		.thumb_func
 222              	CAN_cmd_chassis_reset_ID:
 223              	.LFB164:
 107:Core/Src/CAN_receive.c **** 
 108:Core/Src/CAN_receive.c **** /**
 109:Core/Src/CAN_receive.c ****   * @brief          send CAN packet of ID 0x700, it will set chassis motor 3508 to quick ID setting
 110:Core/Src/CAN_receive.c ****   * @param[in]      none
 111:Core/Src/CAN_receive.c ****   * @retval         none
 112:Core/Src/CAN_receive.c ****   */
 113:Core/Src/CAN_receive.c **** /**
 114:Core/Src/CAN_receive.c ****   * @brief          发送ID为0x700的CAN包,它会设置3508电机进入快速设置ID
 115:Core/Src/CAN_receive.c ****   * @param[in]      none
 116:Core/Src/CAN_receive.c ****   * @retval         none
 117:Core/Src/CAN_receive.c ****   */
 118:Core/Src/CAN_receive.c **** void CAN_cmd_chassis_reset_ID(void)
 119:Core/Src/CAN_receive.c **** {
 224              		.loc 1 119 1 is_stmt 1 view -0
 225              		.cfi_startproc
 226              		@ args = 0, pretend = 0, frame = 8
 227              		@ frame_needed = 0, uses_anonymous_args = 0
 228 0000 00B5     		push	{lr}
ARM GAS  /var/folders/w5/30yxzty101lfkjn94y0dlkk00000gn/T//ccZN72BR.s 			page 7


 229              	.LCFI6:
 230              		.cfi_def_cfa_offset 4
 231              		.cfi_offset 14, -4
 232 0002 83B0     		sub	sp, sp, #12
 233              	.LCFI7:
 234              		.cfi_def_cfa_offset 16
 120:Core/Src/CAN_receive.c ****     uint32_t send_mail_box;
 235              		.loc 1 120 5 view .LVU54
 121:Core/Src/CAN_receive.c ****     chassis_tx_message.StdId = 0x700;
 236              		.loc 1 121 5 view .LVU55
 237              		.loc 1 121 30 is_stmt 0 view .LVU56
 238 0004 0C49     		ldr	r1, .L12
 239 0006 4FF4E063 		mov	r3, #1792
 240 000a 0B60     		str	r3, [r1]
 122:Core/Src/CAN_receive.c ****     chassis_tx_message.IDE = CAN_ID_STD;
 241              		.loc 1 122 5 is_stmt 1 view .LVU57
 242              		.loc 1 122 28 is_stmt 0 view .LVU58
 243 000c 0023     		movs	r3, #0
 244 000e 8B60     		str	r3, [r1, #8]
 123:Core/Src/CAN_receive.c ****     chassis_tx_message.RTR = CAN_RTR_DATA;
 245              		.loc 1 123 5 is_stmt 1 view .LVU59
 246              		.loc 1 123 28 is_stmt 0 view .LVU60
 247 0010 CB60     		str	r3, [r1, #12]
 124:Core/Src/CAN_receive.c ****     chassis_tx_message.DLC = 0x08;
 248              		.loc 1 124 5 is_stmt 1 view .LVU61
 249              		.loc 1 124 28 is_stmt 0 view .LVU62
 250 0012 0822     		movs	r2, #8
 251 0014 0A61     		str	r2, [r1, #16]
 125:Core/Src/CAN_receive.c ****     chassis_can_send_data[0] = 0;
 252              		.loc 1 125 5 is_stmt 1 view .LVU63
 253              		.loc 1 125 30 is_stmt 0 view .LVU64
 254 0016 094A     		ldr	r2, .L12+4
 255 0018 1370     		strb	r3, [r2]
 126:Core/Src/CAN_receive.c ****     chassis_can_send_data[1] = 0;
 256              		.loc 1 126 5 is_stmt 1 view .LVU65
 257              		.loc 1 126 30 is_stmt 0 view .LVU66
 258 001a 5370     		strb	r3, [r2, #1]
 127:Core/Src/CAN_receive.c ****     chassis_can_send_data[2] = 0;
 259              		.loc 1 127 5 is_stmt 1 view .LVU67
 260              		.loc 1 127 30 is_stmt 0 view .LVU68
 261 001c 9370     		strb	r3, [r2, #2]
 128:Core/Src/CAN_receive.c ****     chassis_can_send_data[3] = 0;
 262              		.loc 1 128 5 is_stmt 1 view .LVU69
 263              		.loc 1 128 30 is_stmt 0 view .LVU70
 264 001e D370     		strb	r3, [r2, #3]
 129:Core/Src/CAN_receive.c ****     chassis_can_send_data[4] = 0;
 265              		.loc 1 129 5 is_stmt 1 view .LVU71
 266              		.loc 1 129 30 is_stmt 0 view .LVU72
 267 0020 1371     		strb	r3, [r2, #4]
 130:Core/Src/CAN_receive.c ****     chassis_can_send_data[5] = 0;
 268              		.loc 1 130 5 is_stmt 1 view .LVU73
 269              		.loc 1 130 30 is_stmt 0 view .LVU74
 270 0022 5371     		strb	r3, [r2, #5]
 131:Core/Src/CAN_receive.c ****     chassis_can_send_data[6] = 0;
 271              		.loc 1 131 5 is_stmt 1 view .LVU75
 272              		.loc 1 131 30 is_stmt 0 view .LVU76
 273 0024 9371     		strb	r3, [r2, #6]
ARM GAS  /var/folders/w5/30yxzty101lfkjn94y0dlkk00000gn/T//ccZN72BR.s 			page 8


 132:Core/Src/CAN_receive.c ****     chassis_can_send_data[7] = 0;
 274              		.loc 1 132 5 is_stmt 1 view .LVU77
 275              		.loc 1 132 30 is_stmt 0 view .LVU78
 276 0026 D371     		strb	r3, [r2, #7]
 133:Core/Src/CAN_receive.c **** 
 134:Core/Src/CAN_receive.c ****     HAL_CAN_AddTxMessage(&CHASSIS_CAN, &chassis_tx_message, chassis_can_send_data, &send_mail_box);
 277              		.loc 1 134 5 is_stmt 1 view .LVU79
 278 0028 01AB     		add	r3, sp, #4
 279 002a 0548     		ldr	r0, .L12+8
 280 002c FFF7FEFF 		bl	HAL_CAN_AddTxMessage
 281              	.LVL8:
 135:Core/Src/CAN_receive.c **** }
 282              		.loc 1 135 1 is_stmt 0 view .LVU80
 283 0030 03B0     		add	sp, sp, #12
 284              	.LCFI8:
 285              		.cfi_def_cfa_offset 4
 286              		@ sp needed
 287 0032 5DF804FB 		ldr	pc, [sp], #4
 288              	.L13:
 289 0036 00BF     		.align	2
 290              	.L12:
 291 0038 00000000 		.word	chassis_tx_message
 292 003c 00000000 		.word	chassis_can_send_data
 293 0040 00000000 		.word	hcan1
 294              		.cfi_endproc
 295              	.LFE164:
 297              		.section	.text.CAN_cmd_chassis,"ax",%progbits
 298              		.align	1
 299              		.global	CAN_cmd_chassis
 300              		.syntax unified
 301              		.thumb
 302              		.thumb_func
 304              	CAN_cmd_chassis:
 305              	.LVL9:
 306              	.LFB165:
 136:Core/Src/CAN_receive.c **** 
 137:Core/Src/CAN_receive.c **** 
 138:Core/Src/CAN_receive.c **** /**
 139:Core/Src/CAN_receive.c ****   * @brief          send control current of motor (0x201, 0x202, 0x203, 0x204)
 140:Core/Src/CAN_receive.c ****   * @param[in]      motor1: (0x201) 3508 motor control current, range [-16384,16384] 
 141:Core/Src/CAN_receive.c ****   * @param[in]      motor2: (0x202) 3508 motor control current, range [-16384,16384] 
 142:Core/Src/CAN_receive.c ****   * @param[in]      motor3: (0x203) 3508 motor control current, range [-16384,16384] 
 143:Core/Src/CAN_receive.c ****   * @param[in]      motor4: (0x204) 3508 motor control current, range [-16384,16384] 
 144:Core/Src/CAN_receive.c ****   * @retval         none
 145:Core/Src/CAN_receive.c ****   */
 146:Core/Src/CAN_receive.c **** /**
 147:Core/Src/CAN_receive.c ****   * @brief          发送电机控制电流(0x201,0x202,0x203,0x204)
 148:Core/Src/CAN_receive.c ****   * @param[in]      motor1: (0x201) 3508电机控制电流, 范围 [-16384,16384]
 149:Core/Src/CAN_receive.c ****   * @param[in]      motor2: (0x202) 3508电机控制电流, 范围 [-16384,16384]
 150:Core/Src/CAN_receive.c ****   * @param[in]      motor3: (0x203) 3508电机控制电流, 范围 [-16384,16384]
 151:Core/Src/CAN_receive.c ****   * @param[in]      motor4: (0x204) 3508电机控制电流, 范围 [-16384,16384]
 152:Core/Src/CAN_receive.c ****   * @retval         none
 153:Core/Src/CAN_receive.c ****   */
 154:Core/Src/CAN_receive.c **** void CAN_cmd_chassis(int16_t motor1, int16_t motor2, int16_t motor3, int16_t motor4)
 155:Core/Src/CAN_receive.c **** {
 307              		.loc 1 155 1 is_stmt 1 view -0
 308              		.cfi_startproc
ARM GAS  /var/folders/w5/30yxzty101lfkjn94y0dlkk00000gn/T//ccZN72BR.s 			page 9


 309              		@ args = 0, pretend = 0, frame = 8
 310              		@ frame_needed = 0, uses_anonymous_args = 0
 311              		.loc 1 155 1 is_stmt 0 view .LVU82
 312 0000 10B5     		push	{r4, lr}
 313              	.LCFI9:
 314              		.cfi_def_cfa_offset 8
 315              		.cfi_offset 4, -8
 316              		.cfi_offset 14, -4
 317 0002 82B0     		sub	sp, sp, #8
 318              	.LCFI10:
 319              		.cfi_def_cfa_offset 16
 320 0004 8E46     		mov	lr, r1
 321 0006 9446     		mov	ip, r2
 156:Core/Src/CAN_receive.c ****     uint32_t send_mail_box;
 322              		.loc 1 156 5 is_stmt 1 view .LVU83
 157:Core/Src/CAN_receive.c ****     chassis_tx_message.StdId = CAN_CHASSIS_ALL_ID;
 323              		.loc 1 157 5 view .LVU84
 324              		.loc 1 157 30 is_stmt 0 view .LVU85
 325 0008 0F49     		ldr	r1, .L16
 326              	.LVL10:
 327              		.loc 1 157 30 view .LVU86
 328 000a 4FF40072 		mov	r2, #512
 329              	.LVL11:
 330              		.loc 1 157 30 view .LVU87
 331 000e 0A60     		str	r2, [r1]
 158:Core/Src/CAN_receive.c ****     chassis_tx_message.IDE = CAN_ID_STD;
 332              		.loc 1 158 5 is_stmt 1 view .LVU88
 333              		.loc 1 158 28 is_stmt 0 view .LVU89
 334 0010 0022     		movs	r2, #0
 335 0012 8A60     		str	r2, [r1, #8]
 159:Core/Src/CAN_receive.c ****     chassis_tx_message.RTR = CAN_RTR_DATA;
 336              		.loc 1 159 5 is_stmt 1 view .LVU90
 337              		.loc 1 159 28 is_stmt 0 view .LVU91
 338 0014 CA60     		str	r2, [r1, #12]
 160:Core/Src/CAN_receive.c ****     chassis_tx_message.DLC = 0x08;
 339              		.loc 1 160 5 is_stmt 1 view .LVU92
 340              		.loc 1 160 28 is_stmt 0 view .LVU93
 341 0016 0822     		movs	r2, #8
 342 0018 0A61     		str	r2, [r1, #16]
 161:Core/Src/CAN_receive.c ****     chassis_can_send_data[0] = motor1 >> 8;
 343              		.loc 1 161 5 is_stmt 1 view .LVU94
 344              		.loc 1 161 30 is_stmt 0 view .LVU95
 345 001a 0C4A     		ldr	r2, .L16+4
 346 001c 0412     		asrs	r4, r0, #8
 347 001e 1470     		strb	r4, [r2]
 162:Core/Src/CAN_receive.c ****     chassis_can_send_data[1] = motor1;
 348              		.loc 1 162 5 is_stmt 1 view .LVU96
 349              		.loc 1 162 30 is_stmt 0 view .LVU97
 350 0020 5070     		strb	r0, [r2, #1]
 163:Core/Src/CAN_receive.c ****     chassis_can_send_data[2] = motor2 >> 8;
 351              		.loc 1 163 5 is_stmt 1 view .LVU98
 352              		.loc 1 163 30 is_stmt 0 view .LVU99
 353 0022 4FEA2E20 		asr	r0, lr, #8
 354              	.LVL12:
 355              		.loc 1 163 30 view .LVU100
 356 0026 9070     		strb	r0, [r2, #2]
 164:Core/Src/CAN_receive.c ****     chassis_can_send_data[3] = motor2;
ARM GAS  /var/folders/w5/30yxzty101lfkjn94y0dlkk00000gn/T//ccZN72BR.s 			page 10


 357              		.loc 1 164 5 is_stmt 1 view .LVU101
 358              		.loc 1 164 30 is_stmt 0 view .LVU102
 359 0028 82F803E0 		strb	lr, [r2, #3]
 165:Core/Src/CAN_receive.c ****     chassis_can_send_data[4] = motor3 >> 8;
 360              		.loc 1 165 5 is_stmt 1 view .LVU103
 361              		.loc 1 165 30 is_stmt 0 view .LVU104
 362 002c 4FEA2C20 		asr	r0, ip, #8
 363 0030 1071     		strb	r0, [r2, #4]
 166:Core/Src/CAN_receive.c ****     chassis_can_send_data[5] = motor3;
 364              		.loc 1 166 5 is_stmt 1 view .LVU105
 365              		.loc 1 166 30 is_stmt 0 view .LVU106
 366 0032 82F805C0 		strb	ip, [r2, #5]
 167:Core/Src/CAN_receive.c ****     chassis_can_send_data[6] = motor4 >> 8;
 367              		.loc 1 167 5 is_stmt 1 view .LVU107
 368              		.loc 1 167 30 is_stmt 0 view .LVU108
 369 0036 1812     		asrs	r0, r3, #8
 370 0038 9071     		strb	r0, [r2, #6]
 168:Core/Src/CAN_receive.c ****     chassis_can_send_data[7] = motor4;
 371              		.loc 1 168 5 is_stmt 1 view .LVU109
 372              		.loc 1 168 30 is_stmt 0 view .LVU110
 373 003a D371     		strb	r3, [r2, #7]
 169:Core/Src/CAN_receive.c **** 
 170:Core/Src/CAN_receive.c ****     HAL_CAN_AddTxMessage(&CHASSIS_CAN, &chassis_tx_message, chassis_can_send_data, &send_mail_box);
 374              		.loc 1 170 5 is_stmt 1 view .LVU111
 375 003c 01AB     		add	r3, sp, #4
 376              	.LVL13:
 377              		.loc 1 170 5 is_stmt 0 view .LVU112
 378 003e 0448     		ldr	r0, .L16+8
 379 0040 FFF7FEFF 		bl	HAL_CAN_AddTxMessage
 380              	.LVL14:
 171:Core/Src/CAN_receive.c **** }
 381              		.loc 1 171 1 view .LVU113
 382 0044 02B0     		add	sp, sp, #8
 383              	.LCFI11:
 384              		.cfi_def_cfa_offset 8
 385              		@ sp needed
 386 0046 10BD     		pop	{r4, pc}
 387              	.L17:
 388              		.align	2
 389              	.L16:
 390 0048 00000000 		.word	chassis_tx_message
 391 004c 00000000 		.word	chassis_can_send_data
 392 0050 00000000 		.word	hcan1
 393              		.cfi_endproc
 394              	.LFE165:
 396              		.section	.text.get_yaw_gimbal_motor_measure_point,"ax",%progbits
 397              		.align	1
 398              		.global	get_yaw_gimbal_motor_measure_point
 399              		.syntax unified
 400              		.thumb
 401              		.thumb_func
 403              	get_yaw_gimbal_motor_measure_point:
 404              	.LFB166:
 172:Core/Src/CAN_receive.c **** 
 173:Core/Src/CAN_receive.c **** /**
 174:Core/Src/CAN_receive.c ****   * @brief          return the yaw 6020 motor data point
 175:Core/Src/CAN_receive.c ****   * @param[in]      none
ARM GAS  /var/folders/w5/30yxzty101lfkjn94y0dlkk00000gn/T//ccZN72BR.s 			page 11


 176:Core/Src/CAN_receive.c ****   * @retval         motor data point
 177:Core/Src/CAN_receive.c ****   */
 178:Core/Src/CAN_receive.c **** /**
 179:Core/Src/CAN_receive.c ****   * @brief          返回yaw 6020电机数据指针
 180:Core/Src/CAN_receive.c ****   * @param[in]      none
 181:Core/Src/CAN_receive.c ****   * @retval         电机数据指针
 182:Core/Src/CAN_receive.c ****   */
 183:Core/Src/CAN_receive.c **** const motor_measure_t *get_yaw_gimbal_motor_measure_point(void)
 184:Core/Src/CAN_receive.c **** {
 405              		.loc 1 184 1 is_stmt 1 view -0
 406              		.cfi_startproc
 407              		@ args = 0, pretend = 0, frame = 0
 408              		@ frame_needed = 0, uses_anonymous_args = 0
 409              		@ link register save eliminated.
 185:Core/Src/CAN_receive.c ****     return &motor_chassis[4];
 410              		.loc 1 185 5 view .LVU115
 186:Core/Src/CAN_receive.c **** }
 411              		.loc 1 186 1 is_stmt 0 view .LVU116
 412 0000 0048     		ldr	r0, .L19
 413 0002 7047     		bx	lr
 414              	.L20:
 415              		.align	2
 416              	.L19:
 417 0004 28000000 		.word	motor_chassis+40
 418              		.cfi_endproc
 419              	.LFE166:
 421              		.section	.text.get_pitch_gimbal_motor_measure_point,"ax",%progbits
 422              		.align	1
 423              		.global	get_pitch_gimbal_motor_measure_point
 424              		.syntax unified
 425              		.thumb
 426              		.thumb_func
 428              	get_pitch_gimbal_motor_measure_point:
 429              	.LFB167:
 187:Core/Src/CAN_receive.c **** 
 188:Core/Src/CAN_receive.c **** /**
 189:Core/Src/CAN_receive.c ****   * @brief          return the pitch 6020 motor data point
 190:Core/Src/CAN_receive.c ****   * @param[in]      none
 191:Core/Src/CAN_receive.c ****   * @retval         motor data point
 192:Core/Src/CAN_receive.c ****   */
 193:Core/Src/CAN_receive.c **** /**
 194:Core/Src/CAN_receive.c ****   * @brief          返回pitch 6020电机数据指针
 195:Core/Src/CAN_receive.c ****   * @param[in]      none
 196:Core/Src/CAN_receive.c ****   * @retval         电机数据指针
 197:Core/Src/CAN_receive.c ****   */
 198:Core/Src/CAN_receive.c **** const motor_measure_t *get_pitch_gimbal_motor_measure_point(void)
 199:Core/Src/CAN_receive.c **** {
 430              		.loc 1 199 1 is_stmt 1 view -0
 431              		.cfi_startproc
 432              		@ args = 0, pretend = 0, frame = 0
 433              		@ frame_needed = 0, uses_anonymous_args = 0
 434              		@ link register save eliminated.
 200:Core/Src/CAN_receive.c ****     return &motor_chassis[5];
 435              		.loc 1 200 5 view .LVU118
 201:Core/Src/CAN_receive.c **** }
 436              		.loc 1 201 1 is_stmt 0 view .LVU119
 437 0000 0048     		ldr	r0, .L22
ARM GAS  /var/folders/w5/30yxzty101lfkjn94y0dlkk00000gn/T//ccZN72BR.s 			page 12


 438 0002 7047     		bx	lr
 439              	.L23:
 440              		.align	2
 441              	.L22:
 442 0004 32000000 		.word	motor_chassis+50
 443              		.cfi_endproc
 444              	.LFE167:
 446              		.section	.text.get_trigger_motor_measure_point,"ax",%progbits
 447              		.align	1
 448              		.global	get_trigger_motor_measure_point
 449              		.syntax unified
 450              		.thumb
 451              		.thumb_func
 453              	get_trigger_motor_measure_point:
 454              	.LFB168:
 202:Core/Src/CAN_receive.c **** 
 203:Core/Src/CAN_receive.c **** 
 204:Core/Src/CAN_receive.c **** /**
 205:Core/Src/CAN_receive.c ****   * @brief          return the trigger 2006 motor data point
 206:Core/Src/CAN_receive.c ****   * @param[in]      none
 207:Core/Src/CAN_receive.c ****   * @retval         motor data point
 208:Core/Src/CAN_receive.c ****   */
 209:Core/Src/CAN_receive.c **** /**
 210:Core/Src/CAN_receive.c ****   * @brief          返回拨弹电机 2006电机数据指针
 211:Core/Src/CAN_receive.c ****   * @param[in]      none
 212:Core/Src/CAN_receive.c ****   * @retval         电机数据指针
 213:Core/Src/CAN_receive.c ****   */
 214:Core/Src/CAN_receive.c **** const motor_measure_t *get_trigger_motor_measure_point(void)
 215:Core/Src/CAN_receive.c **** {
 455              		.loc 1 215 1 is_stmt 1 view -0
 456              		.cfi_startproc
 457              		@ args = 0, pretend = 0, frame = 0
 458              		@ frame_needed = 0, uses_anonymous_args = 0
 459              		@ link register save eliminated.
 216:Core/Src/CAN_receive.c ****     return &motor_chassis[6];
 460              		.loc 1 216 5 view .LVU121
 217:Core/Src/CAN_receive.c **** }
 461              		.loc 1 217 1 is_stmt 0 view .LVU122
 462 0000 0048     		ldr	r0, .L25
 463 0002 7047     		bx	lr
 464              	.L26:
 465              		.align	2
 466              	.L25:
 467 0004 3C000000 		.word	motor_chassis+60
 468              		.cfi_endproc
 469              	.LFE168:
 471              		.section	.text.get_chassis_motor_measure_point,"ax",%progbits
 472              		.align	1
 473              		.global	get_chassis_motor_measure_point
 474              		.syntax unified
 475              		.thumb
 476              		.thumb_func
 478              	get_chassis_motor_measure_point:
 479              	.LVL15:
 480              	.LFB169:
 218:Core/Src/CAN_receive.c **** 
 219:Core/Src/CAN_receive.c **** 
ARM GAS  /var/folders/w5/30yxzty101lfkjn94y0dlkk00000gn/T//ccZN72BR.s 			page 13


 220:Core/Src/CAN_receive.c **** /**
 221:Core/Src/CAN_receive.c ****   * @brief          return the chassis 3508 motor data point
 222:Core/Src/CAN_receive.c ****   * @param[in]      i: motor number,range [0,3]
 223:Core/Src/CAN_receive.c ****   * @retval         motor data point
 224:Core/Src/CAN_receive.c ****   */
 225:Core/Src/CAN_receive.c **** /**
 226:Core/Src/CAN_receive.c ****   * @brief          返回底盘电机 3508电机数据指针
 227:Core/Src/CAN_receive.c ****   * @param[in]      i: 电机编号,范围[0,3]
 228:Core/Src/CAN_receive.c ****   * @retval         电机数据指针
 229:Core/Src/CAN_receive.c ****   */
 230:Core/Src/CAN_receive.c **** const motor_measure_t *get_chassis_motor_measure_point(uint8_t i)
 231:Core/Src/CAN_receive.c **** {
 481              		.loc 1 231 1 is_stmt 1 view -0
 482              		.cfi_startproc
 483              		@ args = 0, pretend = 0, frame = 0
 484              		@ frame_needed = 0, uses_anonymous_args = 0
 485              		@ link register save eliminated.
 232:Core/Src/CAN_receive.c ****     return &motor_chassis[(i & 0x03)];
 486              		.loc 1 232 5 view .LVU124
 487              		.loc 1 232 30 is_stmt 0 view .LVU125
 488 0000 00F00300 		and	r0, r0, #3
 489              	.LVL16:
 490              		.loc 1 232 12 view .LVU126
 491 0004 00EB8000 		add	r0, r0, r0, lsl #2
 233:Core/Src/CAN_receive.c **** }
 492              		.loc 1 233 1 view .LVU127
 493 0008 014B     		ldr	r3, .L28
 494 000a 03EB4000 		add	r0, r3, r0, lsl #1
 495 000e 7047     		bx	lr
 496              	.L29:
 497              		.align	2
 498              	.L28:
 499 0010 00000000 		.word	motor_chassis
 500              		.cfi_endproc
 501              	.LFE169:
 503              		.section	.rodata.Motor_print.str1.4,"aMS",%progbits,1
 504              		.align	2
 505              	.LC0:
 506 0000 74656D70 		.ascii	"temp:%d rpm:%d given_current:%d \015\012\000"
 506      3A256420 
 506      72706D3A 
 506      25642067 
 506      6976656E 
 507              		.section	.text.Motor_print,"ax",%progbits
 508              		.align	1
 509              		.global	Motor_print
 510              		.syntax unified
 511              		.thumb
 512              		.thumb_func
 514              	Motor_print:
 515              	.LFB170:
 234:Core/Src/CAN_receive.c **** 
 235:Core/Src/CAN_receive.c **** void Motor_print()
 236:Core/Src/CAN_receive.c **** {
 516              		.loc 1 236 1 is_stmt 1 view -0
 517              		.cfi_startproc
 518              		@ args = 0, pretend = 0, frame = 0
ARM GAS  /var/folders/w5/30yxzty101lfkjn94y0dlkk00000gn/T//ccZN72BR.s 			page 14


 519              		@ frame_needed = 0, uses_anonymous_args = 0
 520 0000 08B5     		push	{r3, lr}
 521              	.LCFI12:
 522              		.cfi_def_cfa_offset 8
 523              		.cfi_offset 3, -8
 524              		.cfi_offset 14, -4
 237:Core/Src/CAN_receive.c **** 	usart_printf("temp:%d rpm:%d given_current:%d \r\n",motor_chassis[0].temperate,motor_chassis[0].sp
 525              		.loc 1 237 2 view .LVU129
 526              		.loc 1 237 70 is_stmt 0 view .LVU130
 527 0002 0549     		ldr	r1, .L32
 528              		.loc 1 237 2 view .LVU131
 529 0004 B1F90430 		ldrsh	r3, [r1, #4]
 530 0008 B1F90220 		ldrsh	r2, [r1, #2]
 531 000c 8979     		ldrb	r1, [r1, #6]	@ zero_extendqisi2
 532 000e 0348     		ldr	r0, .L32+4
 533 0010 FFF7FEFF 		bl	usart_printf
 534              	.LVL17:
 238:Core/Src/CAN_receive.c **** }
 535              		.loc 1 238 1 view .LVU132
 536 0014 08BD     		pop	{r3, pc}
 537              	.L33:
 538 0016 00BF     		.align	2
 539              	.L32:
 540 0018 00000000 		.word	motor_chassis
 541 001c 00000000 		.word	.LC0
 542              		.cfi_endproc
 543              	.LFE170:
 545              		.section	.rodata.Motor_Vofa_print.str1.4,"aMS",%progbits,1
 546              		.align	2
 547              	.LC1:
 548 0000 25642C25 		.ascii	"%d,%d,%d\012\000"
 548      642C2564 
 548      0A00
 549              		.section	.text.Motor_Vofa_print,"ax",%progbits
 550              		.align	1
 551              		.global	Motor_Vofa_print
 552              		.syntax unified
 553              		.thumb
 554              		.thumb_func
 556              	Motor_Vofa_print:
 557              	.LFB171:
 239:Core/Src/CAN_receive.c **** 
 240:Core/Src/CAN_receive.c **** void Motor_Vofa_print()
 241:Core/Src/CAN_receive.c **** {
 558              		.loc 1 241 1 is_stmt 1 view -0
 559              		.cfi_startproc
 560              		@ args = 0, pretend = 0, frame = 0
 561              		@ frame_needed = 0, uses_anonymous_args = 0
 562 0000 08B5     		push	{r3, lr}
 563              	.LCFI13:
 564              		.cfi_def_cfa_offset 8
 565              		.cfi_offset 3, -8
 566              		.cfi_offset 14, -4
 242:Core/Src/CAN_receive.c **** 	usart_printf("%d,%d,%d\n",motor_chassis[0].temperate,motor_chassis[0].speed_rpm,motor_chassis[0].g
 567              		.loc 1 242 2 view .LVU134
 568              		.loc 1 242 44 is_stmt 0 view .LVU135
 569 0002 0549     		ldr	r1, .L36
ARM GAS  /var/folders/w5/30yxzty101lfkjn94y0dlkk00000gn/T//ccZN72BR.s 			page 15


 570              		.loc 1 242 2 view .LVU136
 571 0004 B1F90430 		ldrsh	r3, [r1, #4]
 572 0008 B1F90220 		ldrsh	r2, [r1, #2]
 573 000c 8979     		ldrb	r1, [r1, #6]	@ zero_extendqisi2
 574 000e 0348     		ldr	r0, .L36+4
 575 0010 FFF7FEFF 		bl	usart_printf
 576              	.LVL18:
 243:Core/Src/CAN_receive.c **** }...
 577              		.loc 1 243 1 view .LVU137
 578 0014 08BD     		pop	{r3, pc}
 579              	.L37:
 580 0016 00BF     		.align	2
 581              	.L36:
 582 0018 00000000 		.word	motor_chassis
 583 001c 00000000 		.word	.LC1
 584              		.cfi_endproc
 585              	.LFE171:
 587              		.section	.bss.i.0,"aw",%nobits
 590              	i.0:
 591 0000 00       		.space	1
 592              		.section	.bss.chassis_can_send_data,"aw",%nobits
 593              		.align	2
 596              	chassis_can_send_data:
 597 0000 00000000 		.space	8
 597      00000000 
 598              		.section	.bss.chassis_tx_message,"aw",%nobits
 599              		.align	2
 602              	chassis_tx_message:
 603 0000 00000000 		.space	24
 603      00000000 
 603      00000000 
 603      00000000 
 603      00000000 
 604              		.section	.bss.gimbal_can_send_data,"aw",%nobits
 605              		.align	2
 608              	gimbal_can_send_data:
 609 0000 00000000 		.space	8
 609      00000000 
 610              		.section	.bss.gimbal_tx_message,"aw",%nobits
 611              		.align	2
 614              	gimbal_tx_message:
 615 0000 00000000 		.space	24
 615      00000000 
 615      00000000 
 615      00000000 
 615      00000000 
 616              		.global	motor_chassis
 617              		.section	.bss.motor_chassis,"aw",%nobits
 618              		.align	2
 621              	motor_chassis:
 622 0000 00000000 		.space	70
 622      00000000 
 622      00000000 
 622      00000000 
 622      00000000 
 623              		.text
 624              	.Letext0:
ARM GAS  /var/folders/w5/30yxzty101lfkjn94y0dlkk00000gn/T//ccZN72BR.s 			page 16


 625              		.file 2 "/Applications/ArmGNUToolchain/13.3.rel1/arm-none-eabi/arm-none-eabi/include/machine/_defa
 626              		.file 3 "/Applications/ArmGNUToolchain/13.3.rel1/arm-none-eabi/arm-none-eabi/include/sys/_stdint.h
 627              		.file 4 "Drivers/CMSIS/Device/ST/STM32F4xx/Include/stm32f407xx.h"
 628              		.file 5 "Drivers/CMSIS/Device/ST/STM32F4xx/Include/stm32f4xx.h"
 629              		.file 6 "Drivers/STM32F4xx_HAL_Driver/Inc/stm32f4xx_hal_def.h"
 630              		.file 7 "Drivers/STM32F4xx_HAL_Driver/Inc/stm32f4xx_hal_can.h"
 631              		.file 8 "Core/Inc/can.h"
 632              		.file 9 "Core/Inc/CAN_receive.h"
 633              		.file 10 "Core/Inc/user_usart.h"
ARM GAS  /var/folders/w5/30yxzty101lfkjn94y0dlkk00000gn/T//ccZN72BR.s 			page 17

