ARM GAS  /var/folders/w9/l2kswtfn3fs2kslkvv5vg9sh0000gn/T//ccLXrTqc.s 			page 1


   1              		.cpu cortex-m4
   2              		.arch armv7e-m
   3              		.fpu fpv4-sp-d16
   4              		.eabi_attribute 27, 1
   5              		.eabi_attribute 28, 1
   6              		.eabi_attribute 20, 1
   7              		.eabi_attribute 21, 1
   8              		.eabi_attribute 23, 3
   9              		.eabi_attribute 24, 1
  10              		.eabi_attribute 25, 1
  11              		.eabi_attribute 26, 1
  12              		.eabi_attribute 30, 1
  13              		.eabi_attribute 34, 1
  14              		.eabi_attribute 18, 4
  15              		.file	"FusionAhrs.c"
  16              		.text
  17              	.Ltext0:
  18              		.cfi_sections	.debug_frame
  19              		.file 1 "Core/Src/FusionAhrs.c"
  20              		.section	.text.FusionVectorCrossProduct,"ax",%progbits
  21              		.align	1
  22              		.syntax unified
  23              		.thumb
  24              		.thumb_func
  26              	FusionVectorCrossProduct:
  27              	.LFB10:
  28              		.file 2 "Core/Inc/FusionMath.h"
   1:Core/Inc/FusionMath.h **** /**
   2:Core/Inc/FusionMath.h ****  * @file FusionMath.h
   3:Core/Inc/FusionMath.h ****  * @author Seb Madgwick
   4:Core/Inc/FusionMath.h ****  * @brief Math library.
   5:Core/Inc/FusionMath.h ****  */
   6:Core/Inc/FusionMath.h **** 
   7:Core/Inc/FusionMath.h **** #ifndef FUSION_MATH_H
   8:Core/Inc/FusionMath.h **** #define FUSION_MATH_H
   9:Core/Inc/FusionMath.h **** 
  10:Core/Inc/FusionMath.h **** //------------------------------------------------------------------------------
  11:Core/Inc/FusionMath.h **** // Includes
  12:Core/Inc/FusionMath.h **** 
  13:Core/Inc/FusionMath.h **** #include <math.h> // M_PI, sqrtf, atan2f, asinf
  14:Core/Inc/FusionMath.h **** #include <stdbool.h>
  15:Core/Inc/FusionMath.h **** #include <stdint.h>
  16:Core/Inc/FusionMath.h **** 
  17:Core/Inc/FusionMath.h **** //------------------------------------------------------------------------------
  18:Core/Inc/FusionMath.h **** // Definitions
  19:Core/Inc/FusionMath.h **** 
  20:Core/Inc/FusionMath.h **** /**
  21:Core/Inc/FusionMath.h ****  * @brief 3D vector.
  22:Core/Inc/FusionMath.h ****  */
  23:Core/Inc/FusionMath.h **** typedef union {
  24:Core/Inc/FusionMath.h ****     float array[3];
  25:Core/Inc/FusionMath.h **** 
  26:Core/Inc/FusionMath.h ****     struct {
  27:Core/Inc/FusionMath.h ****         float x;
  28:Core/Inc/FusionMath.h ****         float y;
  29:Core/Inc/FusionMath.h ****         float z;
  30:Core/Inc/FusionMath.h ****     } axis;
ARM GAS  /var/folders/w9/l2kswtfn3fs2kslkvv5vg9sh0000gn/T//ccLXrTqc.s 			page 2


  31:Core/Inc/FusionMath.h **** } FusionVector;
  32:Core/Inc/FusionMath.h **** 
  33:Core/Inc/FusionMath.h **** /**
  34:Core/Inc/FusionMath.h ****  * @brief Quaternion.
  35:Core/Inc/FusionMath.h ****  */
  36:Core/Inc/FusionMath.h **** typedef union {
  37:Core/Inc/FusionMath.h ****     float array[4];
  38:Core/Inc/FusionMath.h **** 
  39:Core/Inc/FusionMath.h ****     struct {
  40:Core/Inc/FusionMath.h ****         float w;
  41:Core/Inc/FusionMath.h ****         float x;
  42:Core/Inc/FusionMath.h ****         float y;
  43:Core/Inc/FusionMath.h ****         float z;
  44:Core/Inc/FusionMath.h ****     } element;
  45:Core/Inc/FusionMath.h **** } FusionQuaternion;
  46:Core/Inc/FusionMath.h **** 
  47:Core/Inc/FusionMath.h **** /**
  48:Core/Inc/FusionMath.h ****  * @brief 3x3 matrix in row-major order.
  49:Core/Inc/FusionMath.h ****  * See http://en.wikipedia.org/wiki/Row-major_order
  50:Core/Inc/FusionMath.h ****  */
  51:Core/Inc/FusionMath.h **** typedef union {
  52:Core/Inc/FusionMath.h ****     float array[3][3];
  53:Core/Inc/FusionMath.h **** 
  54:Core/Inc/FusionMath.h ****     struct {
  55:Core/Inc/FusionMath.h ****         float xx;
  56:Core/Inc/FusionMath.h ****         float xy;
  57:Core/Inc/FusionMath.h ****         float xz;
  58:Core/Inc/FusionMath.h ****         float yx;
  59:Core/Inc/FusionMath.h ****         float yy;
  60:Core/Inc/FusionMath.h ****         float yz;
  61:Core/Inc/FusionMath.h ****         float zx;
  62:Core/Inc/FusionMath.h ****         float zy;
  63:Core/Inc/FusionMath.h ****         float zz;
  64:Core/Inc/FusionMath.h ****     } element;
  65:Core/Inc/FusionMath.h **** } FusionMatrix;
  66:Core/Inc/FusionMath.h **** 
  67:Core/Inc/FusionMath.h **** /**
  68:Core/Inc/FusionMath.h ****  * @brief Euler angles.  Roll, pitch, and yaw correspond to rotations around
  69:Core/Inc/FusionMath.h ****  * X, Y, and Z respectively.
  70:Core/Inc/FusionMath.h ****  */
  71:Core/Inc/FusionMath.h **** typedef union {
  72:Core/Inc/FusionMath.h ****     float array[3];
  73:Core/Inc/FusionMath.h **** 
  74:Core/Inc/FusionMath.h ****     struct {
  75:Core/Inc/FusionMath.h ****         float roll;
  76:Core/Inc/FusionMath.h ****         float pitch;
  77:Core/Inc/FusionMath.h ****         float yaw;
  78:Core/Inc/FusionMath.h ****     } angle;
  79:Core/Inc/FusionMath.h **** } FusionEuler;
  80:Core/Inc/FusionMath.h **** 
  81:Core/Inc/FusionMath.h **** /**
  82:Core/Inc/FusionMath.h ****  * @brief Vector of zeros.
  83:Core/Inc/FusionMath.h ****  */
  84:Core/Inc/FusionMath.h **** #define FUSION_VECTOR_ZERO ((FusionVector){ .array = {0.0f, 0.0f, 0.0f} })
  85:Core/Inc/FusionMath.h **** 
  86:Core/Inc/FusionMath.h **** /**
  87:Core/Inc/FusionMath.h ****  * @brief Vector of ones.
ARM GAS  /var/folders/w9/l2kswtfn3fs2kslkvv5vg9sh0000gn/T//ccLXrTqc.s 			page 3


  88:Core/Inc/FusionMath.h ****  */
  89:Core/Inc/FusionMath.h **** #define FUSION_VECTOR_ONES ((FusionVector){ .array = {1.0f, 1.0f, 1.0f} })
  90:Core/Inc/FusionMath.h **** 
  91:Core/Inc/FusionMath.h **** /**
  92:Core/Inc/FusionMath.h ****  * @brief Identity quaternion.
  93:Core/Inc/FusionMath.h ****  */
  94:Core/Inc/FusionMath.h **** #define FUSION_IDENTITY_QUATERNION ((FusionQuaternion){ .array = {1.0f, 0.0f, 0.0f, 0.0f} })
  95:Core/Inc/FusionMath.h **** 
  96:Core/Inc/FusionMath.h **** /**
  97:Core/Inc/FusionMath.h ****  * @brief Identity matrix.
  98:Core/Inc/FusionMath.h ****  */
  99:Core/Inc/FusionMath.h **** #define FUSION_IDENTITY_MATRIX ((FusionMatrix){ .array = {{1.0f, 0.0f, 0.0f}, {0.0f, 1.0f, 0.0f}, {
 100:Core/Inc/FusionMath.h **** 
 101:Core/Inc/FusionMath.h **** /**
 102:Core/Inc/FusionMath.h ****  * @brief Euler angles of zero.
 103:Core/Inc/FusionMath.h ****  */
 104:Core/Inc/FusionMath.h **** #define FUSION_EULER_ZERO ((FusionEuler){ .array = {0.0f, 0.0f, 0.0f} })
 105:Core/Inc/FusionMath.h **** 
 106:Core/Inc/FusionMath.h **** /**
 107:Core/Inc/FusionMath.h ****  * @brief Pi. May not be defined in math.h.
 108:Core/Inc/FusionMath.h ****  */
 109:Core/Inc/FusionMath.h **** #ifndef M_PI
 110:Core/Inc/FusionMath.h **** #define M_PI (3.14159265358979323846)
 111:Core/Inc/FusionMath.h **** #endif
 112:Core/Inc/FusionMath.h **** 
 113:Core/Inc/FusionMath.h **** /**
 114:Core/Inc/FusionMath.h ****  * @brief Include this definition or add as a preprocessor definition to use
 115:Core/Inc/FusionMath.h ****  * normal square root operations.
 116:Core/Inc/FusionMath.h ****  */
 117:Core/Inc/FusionMath.h **** //#define FUSION_USE_NORMAL_SQRT
 118:Core/Inc/FusionMath.h **** 
 119:Core/Inc/FusionMath.h **** //------------------------------------------------------------------------------
 120:Core/Inc/FusionMath.h **** // Inline functions - Degrees and radians conversion
 121:Core/Inc/FusionMath.h **** 
 122:Core/Inc/FusionMath.h **** /**
 123:Core/Inc/FusionMath.h ****  * @brief Converts degrees to radians.
 124:Core/Inc/FusionMath.h ****  * @param degrees Degrees.
 125:Core/Inc/FusionMath.h ****  * @return Radians.
 126:Core/Inc/FusionMath.h ****  */
 127:Core/Inc/FusionMath.h **** static inline float FusionDegreesToRadians(const float degrees) {
 128:Core/Inc/FusionMath.h ****     return degrees * ((float) M_PI / 180.0f);
 129:Core/Inc/FusionMath.h **** }
 130:Core/Inc/FusionMath.h **** 
 131:Core/Inc/FusionMath.h **** /**
 132:Core/Inc/FusionMath.h ****  * @brief Converts radians to degrees.
 133:Core/Inc/FusionMath.h ****  * @param radians Radians.
 134:Core/Inc/FusionMath.h ****  * @return Degrees.
 135:Core/Inc/FusionMath.h ****  */
 136:Core/Inc/FusionMath.h **** static inline float FusionRadiansToDegrees(const float radians) {
 137:Core/Inc/FusionMath.h ****     return radians * (180.0f / (float) M_PI);
 138:Core/Inc/FusionMath.h **** }
 139:Core/Inc/FusionMath.h **** 
 140:Core/Inc/FusionMath.h **** //------------------------------------------------------------------------------
 141:Core/Inc/FusionMath.h **** // Inline functions - Arc sine
 142:Core/Inc/FusionMath.h **** 
 143:Core/Inc/FusionMath.h **** /**
 144:Core/Inc/FusionMath.h ****  * @brief Returns the arc sine of the value.
ARM GAS  /var/folders/w9/l2kswtfn3fs2kslkvv5vg9sh0000gn/T//ccLXrTqc.s 			page 4


 145:Core/Inc/FusionMath.h ****  * @param value Value.
 146:Core/Inc/FusionMath.h ****  * @return Arc sine of the value.
 147:Core/Inc/FusionMath.h ****  */
 148:Core/Inc/FusionMath.h **** static inline float FusionAsin(const float value) {
 149:Core/Inc/FusionMath.h ****     if (value <= -1.0f) {
 150:Core/Inc/FusionMath.h ****         return (float) M_PI / -2.0f;
 151:Core/Inc/FusionMath.h ****     }
 152:Core/Inc/FusionMath.h ****     if (value >= 1.0f) {
 153:Core/Inc/FusionMath.h ****         return (float) M_PI / 2.0f;
 154:Core/Inc/FusionMath.h ****     }
 155:Core/Inc/FusionMath.h ****     return asinf(value);
 156:Core/Inc/FusionMath.h **** }
 157:Core/Inc/FusionMath.h **** 
 158:Core/Inc/FusionMath.h **** //------------------------------------------------------------------------------
 159:Core/Inc/FusionMath.h **** // Inline functions - Fast inverse square root
 160:Core/Inc/FusionMath.h **** 
 161:Core/Inc/FusionMath.h **** #ifndef FUSION_USE_NORMAL_SQRT
 162:Core/Inc/FusionMath.h **** 
 163:Core/Inc/FusionMath.h **** /**
 164:Core/Inc/FusionMath.h ****  * @brief Calculates the reciprocal of the square root.
 165:Core/Inc/FusionMath.h ****  * See https://pizer.wordpress.com/2008/10/12/fast-inverse-square-root/
 166:Core/Inc/FusionMath.h ****  * @param x Operand.
 167:Core/Inc/FusionMath.h ****  * @return Reciprocal of the square root of x.
 168:Core/Inc/FusionMath.h ****  */
 169:Core/Inc/FusionMath.h **** static inline float FusionFastInverseSqrt(const float x) {
 170:Core/Inc/FusionMath.h **** 
 171:Core/Inc/FusionMath.h ****     typedef union {
 172:Core/Inc/FusionMath.h ****         float f;
 173:Core/Inc/FusionMath.h ****         int32_t i;
 174:Core/Inc/FusionMath.h ****     } Union32;
 175:Core/Inc/FusionMath.h **** 
 176:Core/Inc/FusionMath.h ****     Union32 union32 = {.f = x};
 177:Core/Inc/FusionMath.h ****     union32.i = 0x5F1F1412 - (union32.i >> 1);
 178:Core/Inc/FusionMath.h ****     return union32.f * (1.69000231f - 0.714158168f * x * union32.f * union32.f);
 179:Core/Inc/FusionMath.h **** }
 180:Core/Inc/FusionMath.h **** 
 181:Core/Inc/FusionMath.h **** #endif
 182:Core/Inc/FusionMath.h **** 
 183:Core/Inc/FusionMath.h **** //------------------------------------------------------------------------------
 184:Core/Inc/FusionMath.h **** // Inline functions - Vector operations
 185:Core/Inc/FusionMath.h **** 
 186:Core/Inc/FusionMath.h **** /**
 187:Core/Inc/FusionMath.h ****  * @brief Returns true if the vector is zero.
 188:Core/Inc/FusionMath.h ****  * @param vector Vector.
 189:Core/Inc/FusionMath.h ****  * @return True if the vector is zero.
 190:Core/Inc/FusionMath.h ****  */
 191:Core/Inc/FusionMath.h **** static inline bool FusionVectorIsZero(const FusionVector vector) {
 192:Core/Inc/FusionMath.h ****     return (vector.axis.x == 0.0f) && (vector.axis.y == 0.0f) && (vector.axis.z == 0.0f);
 193:Core/Inc/FusionMath.h **** }
 194:Core/Inc/FusionMath.h **** 
 195:Core/Inc/FusionMath.h **** /**
 196:Core/Inc/FusionMath.h ****  * @brief Returns the sum of two vectors.
 197:Core/Inc/FusionMath.h ****  * @param vectorA Vector A.
 198:Core/Inc/FusionMath.h ****  * @param vectorB Vector B.
 199:Core/Inc/FusionMath.h ****  * @return Sum of two vectors.
 200:Core/Inc/FusionMath.h ****  */
 201:Core/Inc/FusionMath.h **** static inline FusionVector FusionVectorAdd(const FusionVector vectorA, const FusionVector vectorB) 
ARM GAS  /var/folders/w9/l2kswtfn3fs2kslkvv5vg9sh0000gn/T//ccLXrTqc.s 			page 5


 202:Core/Inc/FusionMath.h ****     const FusionVector result = {.axis = {
 203:Core/Inc/FusionMath.h ****             .x = vectorA.axis.x + vectorB.axis.x,
 204:Core/Inc/FusionMath.h ****             .y = vectorA.axis.y + vectorB.axis.y,
 205:Core/Inc/FusionMath.h ****             .z = vectorA.axis.z + vectorB.axis.z,
 206:Core/Inc/FusionMath.h ****     }};
 207:Core/Inc/FusionMath.h ****     return result;
 208:Core/Inc/FusionMath.h **** }
 209:Core/Inc/FusionMath.h **** 
 210:Core/Inc/FusionMath.h **** /**
 211:Core/Inc/FusionMath.h ****  * @brief Returns vector B subtracted from vector A.
 212:Core/Inc/FusionMath.h ****  * @param vectorA Vector A.
 213:Core/Inc/FusionMath.h ****  * @param vectorB Vector B.
 214:Core/Inc/FusionMath.h ****  * @return Vector B subtracted from vector A.
 215:Core/Inc/FusionMath.h ****  */
 216:Core/Inc/FusionMath.h **** static inline FusionVector FusionVectorSubtract(const FusionVector vectorA, const FusionVector vect
 217:Core/Inc/FusionMath.h ****     const FusionVector result = {.axis = {
 218:Core/Inc/FusionMath.h ****             .x = vectorA.axis.x - vectorB.axis.x,
 219:Core/Inc/FusionMath.h ****             .y = vectorA.axis.y - vectorB.axis.y,
 220:Core/Inc/FusionMath.h ****             .z = vectorA.axis.z - vectorB.axis.z,
 221:Core/Inc/FusionMath.h ****     }};
 222:Core/Inc/FusionMath.h ****     return result;
 223:Core/Inc/FusionMath.h **** }
 224:Core/Inc/FusionMath.h **** 
 225:Core/Inc/FusionMath.h **** /**
 226:Core/Inc/FusionMath.h ****  * @brief Returns the sum of the elements.
 227:Core/Inc/FusionMath.h ****  * @param vector Vector.
 228:Core/Inc/FusionMath.h ****  * @return Sum of the elements.
 229:Core/Inc/FusionMath.h ****  */
 230:Core/Inc/FusionMath.h **** static inline float FusionVectorSum(const FusionVector vector) {
 231:Core/Inc/FusionMath.h ****     return vector.axis.x + vector.axis.y + vector.axis.z;
 232:Core/Inc/FusionMath.h **** }
 233:Core/Inc/FusionMath.h **** 
 234:Core/Inc/FusionMath.h **** /**
 235:Core/Inc/FusionMath.h ****  * @brief Returns the multiplication of a vector by a scalar.
 236:Core/Inc/FusionMath.h ****  * @param vector Vector.
 237:Core/Inc/FusionMath.h ****  * @param scalar Scalar.
 238:Core/Inc/FusionMath.h ****  * @return Multiplication of a vector by a scalar.
 239:Core/Inc/FusionMath.h ****  */
 240:Core/Inc/FusionMath.h **** static inline FusionVector FusionVectorMultiplyScalar(const FusionVector vector, const float scalar
 241:Core/Inc/FusionMath.h ****     const FusionVector result = {.axis = {
 242:Core/Inc/FusionMath.h ****             .x = vector.axis.x * scalar,
 243:Core/Inc/FusionMath.h ****             .y = vector.axis.y * scalar,
 244:Core/Inc/FusionMath.h ****             .z = vector.axis.z * scalar,
 245:Core/Inc/FusionMath.h ****     }};
 246:Core/Inc/FusionMath.h ****     return result;
 247:Core/Inc/FusionMath.h **** }
 248:Core/Inc/FusionMath.h **** 
 249:Core/Inc/FusionMath.h **** /**
 250:Core/Inc/FusionMath.h ****  * @brief Calculates the Hadamard product (element-wise multiplication).
 251:Core/Inc/FusionMath.h ****  * @param vectorA Vector A.
 252:Core/Inc/FusionMath.h ****  * @param vectorB Vector B.
 253:Core/Inc/FusionMath.h ****  * @return Hadamard product.
 254:Core/Inc/FusionMath.h ****  */
 255:Core/Inc/FusionMath.h **** static inline FusionVector FusionVectorHadamardProduct(const FusionVector vectorA, const FusionVect
 256:Core/Inc/FusionMath.h ****     const FusionVector result = {.axis = {
 257:Core/Inc/FusionMath.h ****             .x = vectorA.axis.x * vectorB.axis.x,
 258:Core/Inc/FusionMath.h ****             .y = vectorA.axis.y * vectorB.axis.y,
ARM GAS  /var/folders/w9/l2kswtfn3fs2kslkvv5vg9sh0000gn/T//ccLXrTqc.s 			page 6


 259:Core/Inc/FusionMath.h ****             .z = vectorA.axis.z * vectorB.axis.z,
 260:Core/Inc/FusionMath.h ****     }};
 261:Core/Inc/FusionMath.h ****     return result;
 262:Core/Inc/FusionMath.h **** }
 263:Core/Inc/FusionMath.h **** 
 264:Core/Inc/FusionMath.h **** /**
 265:Core/Inc/FusionMath.h ****  * @brief Returns the cross product.
 266:Core/Inc/FusionMath.h ****  * @param vectorA Vector A.
 267:Core/Inc/FusionMath.h ****  * @param vectorB Vector B.
 268:Core/Inc/FusionMath.h ****  * @return Cross product.
 269:Core/Inc/FusionMath.h ****  */
 270:Core/Inc/FusionMath.h **** static inline FusionVector FusionVectorCrossProduct(const FusionVector vectorA, const FusionVector 
  29              		.loc 2 270 109 view -0
  30              		.cfi_startproc
  31              		@ args = 0, pretend = 0, frame = 64
  32              		@ frame_needed = 0, uses_anonymous_args = 0
  33              		@ link register save eliminated.
  34 0000 90B0     		sub	sp, sp, #64
  35              	.LCFI0:
  36              		.cfi_def_cfa_offset 64
  37 0002 8DED070A 		vstr.32	s0, [sp, #28]
  38 0006 CDED080A 		vstr.32	s1, [sp, #32]
  39 000a 8DED091A 		vstr.32	s2, [sp, #36]
  40 000e CDED041A 		vstr.32	s3, [sp, #16]
  41 0012 8DED052A 		vstr.32	s4, [sp, #20]
  42 0016 CDED062A 		vstr.32	s5, [sp, #24]
 271:Core/Inc/FusionMath.h **** #define A vectorA.axis
 272:Core/Inc/FusionMath.h **** #define B vectorB.axis
 273:Core/Inc/FusionMath.h ****     const FusionVector result = {.axis = {
  43              		.loc 2 273 5 view .LVU1
 274:Core/Inc/FusionMath.h ****             .x = A.y * B.z - A.z * B.y,
  44              		.loc 2 274 22 is_stmt 0 view .LVU2
  45 001a 60EEA27A 		vmul.f32	s15, s1, s5
  46              		.loc 2 274 34 view .LVU3
  47 001e 21EE027A 		vmul.f32	s14, s2, s4
  48              		.loc 2 274 28 view .LVU4
  49 0022 77EEC77A 		vsub.f32	s15, s15, s14
 273:Core/Inc/FusionMath.h ****             .x = A.y * B.z - A.z * B.y,
  50              		.loc 2 273 24 view .LVU5
  51 0026 CDED0A7A 		vstr.32	s15, [sp, #40]
 275:Core/Inc/FusionMath.h ****             .y = A.z * B.x - A.x * B.z,
  52              		.loc 2 275 22 view .LVU6
  53 002a 21EE211A 		vmul.f32	s2, s2, s3
  54              		.loc 2 275 34 view .LVU7
  55 002e 62EE802A 		vmul.f32	s5, s5, s0
  56              		.loc 2 275 28 view .LVU8
  57 0032 31EE621A 		vsub.f32	s2, s2, s5
 273:Core/Inc/FusionMath.h ****             .x = A.y * B.z - A.z * B.y,
  58              		.loc 2 273 24 view .LVU9
  59 0036 8DED0B1A 		vstr.32	s2, [sp, #44]
 276:Core/Inc/FusionMath.h ****             .z = A.x * B.y - A.y * B.x,
  60              		.loc 2 276 22 view .LVU10
  61 003a 22EE002A 		vmul.f32	s4, s4, s0
  62              		.loc 2 276 34 view .LVU11
  63 003e 60EEA10A 		vmul.f32	s1, s1, s3
  64              		.loc 2 276 28 view .LVU12
  65 0042 32EE602A 		vsub.f32	s4, s4, s1
ARM GAS  /var/folders/w9/l2kswtfn3fs2kslkvv5vg9sh0000gn/T//ccLXrTqc.s 			page 7


 273:Core/Inc/FusionMath.h ****             .x = A.y * B.z - A.z * B.y,
  66              		.loc 2 273 24 view .LVU13
  67 0046 8DED0C2A 		vstr.32	s4, [sp, #48]
 277:Core/Inc/FusionMath.h ****     }};
 278:Core/Inc/FusionMath.h ****     return result;
  68              		.loc 2 278 5 is_stmt 1 view .LVU14
  69              		.loc 2 278 12 is_stmt 0 view .LVU15
  70 004a 0AAB     		add	r3, sp, #40
  71 004c 93E80700 		ldm	r3, {r0, r1, r2}
  72 0050 10AB     		add	r3, sp, #64
  73 0052 03E90700 		stmdb	r3, {r0, r1, r2}
 279:Core/Inc/FusionMath.h **** #undef A
 280:Core/Inc/FusionMath.h **** #undef B
 281:Core/Inc/FusionMath.h **** }
  74              		.loc 2 281 1 view .LVU16
  75 0056 9DED0D0A 		vldr.32	s0, [sp, #52]
  76 005a DDED0E0A 		vldr.32	s1, [sp, #56]
  77 005e 9DED0F1A 		vldr.32	s2, [sp, #60]
  78 0062 10B0     		add	sp, sp, #64
  79              	.LCFI1:
  80              		.cfi_def_cfa_offset 0
  81              		@ sp needed
  82 0064 7047     		bx	lr
  83              		.cfi_endproc
  84              	.LFE10:
  86              		.section	.text.FusionVectorDotProduct,"ax",%progbits
  87              		.align	1
  88              		.syntax unified
  89              		.thumb
  90              		.thumb_func
  92              	FusionVectorDotProduct:
  93              	.LFB11:
 282:Core/Inc/FusionMath.h **** 
 283:Core/Inc/FusionMath.h **** /**
 284:Core/Inc/FusionMath.h ****  * @brief Returns the dot product.
 285:Core/Inc/FusionMath.h ****  * @param vectorA Vector A.
 286:Core/Inc/FusionMath.h ****  * @param vectorB Vector B.
 287:Core/Inc/FusionMath.h ****  * @return Dot product.
 288:Core/Inc/FusionMath.h ****  */
 289:Core/Inc/FusionMath.h **** static inline float FusionVectorDotProduct(const FusionVector vectorA, const FusionVector vectorB) 
  94              		.loc 2 289 100 is_stmt 1 view -0
  95              		.cfi_startproc
  96              		@ args = 0, pretend = 0, frame = 64
  97              		@ frame_needed = 0, uses_anonymous_args = 0
  98              		@ link register save eliminated.
  99 0000 90B0     		sub	sp, sp, #64
 100              	.LCFI2:
 101              		.cfi_def_cfa_offset 64
 102 0002 8DED030A 		vstr.32	s0, [sp, #12]
 103 0006 CDED040A 		vstr.32	s1, [sp, #16]
 104 000a 8DED051A 		vstr.32	s2, [sp, #20]
 105 000e CDED001A 		vstr.32	s3, [sp]
 106 0012 8DED012A 		vstr.32	s4, [sp, #4]
 107 0016 CDED022A 		vstr.32	s5, [sp, #8]
 290:Core/Inc/FusionMath.h ****     return FusionVectorSum(FusionVectorHadamardProduct(vectorA, vectorB));
 108              		.loc 2 290 5 view .LVU18
 109              	.LBB56:
ARM GAS  /var/folders/w9/l2kswtfn3fs2kslkvv5vg9sh0000gn/T//ccLXrTqc.s 			page 8


 110              	.LBI56:
 255:Core/Inc/FusionMath.h ****     const FusionVector result = {.axis = {
 111              		.loc 2 255 28 view .LVU19
 112              	.LBB57:
 256:Core/Inc/FusionMath.h ****             .x = vectorA.axis.x * vectorB.axis.x,
 113              		.loc 2 256 5 view .LVU20
 257:Core/Inc/FusionMath.h ****             .y = vectorA.axis.y * vectorB.axis.y,
 114              		.loc 2 257 33 is_stmt 0 view .LVU21
 115 001a 60EE211A 		vmul.f32	s3, s0, s3
 256:Core/Inc/FusionMath.h ****             .x = vectorA.axis.x * vectorB.axis.x,
 116              		.loc 2 256 24 view .LVU22
 117 001e CDED071A 		vstr.32	s3, [sp, #28]
 258:Core/Inc/FusionMath.h ****             .z = vectorA.axis.z * vectorB.axis.z,
 118              		.loc 2 258 33 view .LVU23
 119 0022 60EE820A 		vmul.f32	s1, s1, s4
 256:Core/Inc/FusionMath.h ****             .x = vectorA.axis.x * vectorB.axis.x,
 120              		.loc 2 256 24 view .LVU24
 121 0026 CDED080A 		vstr.32	s1, [sp, #32]
 259:Core/Inc/FusionMath.h ****     }};
 122              		.loc 2 259 33 view .LVU25
 123 002a 21EE221A 		vmul.f32	s2, s2, s5
 256:Core/Inc/FusionMath.h ****             .x = vectorA.axis.x * vectorB.axis.x,
 124              		.loc 2 256 24 view .LVU26
 125 002e 8DED091A 		vstr.32	s2, [sp, #36]
 261:Core/Inc/FusionMath.h **** }
 126              		.loc 2 261 5 is_stmt 1 view .LVU27
 261:Core/Inc/FusionMath.h **** }
 127              		.loc 2 261 12 is_stmt 0 view .LVU28
 128 0032 0DAB     		add	r3, sp, #52
 129 0034 07AA     		add	r2, sp, #28
 130 0036 07CA     		ldm	r2, {r0, r1, r2}
 131 0038 83E80700 		stm	r3, {r0, r1, r2}
 132 003c 0DF1280C 		add	ip, sp, #40
 133 0040 8CE80700 		stm	ip, {r0, r1, r2}
 134              	.LBE57:
 135              	.LBE56:
 136              	.LBB58:
 137              	.LBI58:
 230:Core/Inc/FusionMath.h ****     return vector.axis.x + vector.axis.y + vector.axis.z;
 138              		.loc 2 230 21 is_stmt 1 view .LVU29
 139              	.LBB59:
 231:Core/Inc/FusionMath.h **** }
 140              		.loc 2 231 5 view .LVU30
 231:Core/Inc/FusionMath.h **** }
 141              		.loc 2 231 26 is_stmt 0 view .LVU31
 142 0044 31EEA00A 		vadd.f32	s0, s3, s1
 143              	.LBE59:
 144              	.LBE58:
 291:Core/Inc/FusionMath.h **** }
 145              		.loc 2 291 1 view .LVU32
 146 0048 30EE010A 		vadd.f32	s0, s0, s2
 147 004c 10B0     		add	sp, sp, #64
 148              	.LCFI3:
 149              		.cfi_def_cfa_offset 0
 150              		@ sp needed
 151 004e 7047     		bx	lr
 152              		.cfi_endproc
ARM GAS  /var/folders/w9/l2kswtfn3fs2kslkvv5vg9sh0000gn/T//ccLXrTqc.s 			page 9


 153              	.LFE11:
 155              		.section	.text.FusionVectorMagnitudeSquared,"ax",%progbits
 156              		.align	1
 157              		.syntax unified
 158              		.thumb
 159              		.thumb_func
 161              	FusionVectorMagnitudeSquared:
 162              	.LFB12:
 292:Core/Inc/FusionMath.h **** 
 293:Core/Inc/FusionMath.h **** /**
 294:Core/Inc/FusionMath.h ****  * @brief Returns the vector magnitude squared.
 295:Core/Inc/FusionMath.h ****  * @param vector Vector.
 296:Core/Inc/FusionMath.h ****  * @return Vector magnitude squared.
 297:Core/Inc/FusionMath.h ****  */
 298:Core/Inc/FusionMath.h **** static inline float FusionVectorMagnitudeSquared(const FusionVector vector) {
 163              		.loc 2 298 77 is_stmt 1 view -0
 164              		.cfi_startproc
 165              		@ args = 0, pretend = 0, frame = 56
 166              		@ frame_needed = 0, uses_anonymous_args = 0
 167              		@ link register save eliminated.
 168 0000 8EB0     		sub	sp, sp, #56
 169              	.LCFI4:
 170              		.cfi_def_cfa_offset 56
 171 0002 8DED010A 		vstr.32	s0, [sp, #4]
 172 0006 CDED020A 		vstr.32	s1, [sp, #8]
 173 000a 8DED031A 		vstr.32	s2, [sp, #12]
 299:Core/Inc/FusionMath.h ****     return FusionVectorSum(FusionVectorHadamardProduct(vector, vector));
 174              		.loc 2 299 5 view .LVU34
 175              	.LBB60:
 176              	.LBI60:
 255:Core/Inc/FusionMath.h ****     const FusionVector result = {.axis = {
 177              		.loc 2 255 28 view .LVU35
 178              	.LBB61:
 256:Core/Inc/FusionMath.h ****             .x = vectorA.axis.x * vectorB.axis.x,
 179              		.loc 2 256 5 view .LVU36
 257:Core/Inc/FusionMath.h ****             .y = vectorA.axis.y * vectorB.axis.y,
 180              		.loc 2 257 33 is_stmt 0 view .LVU37
 181 000e 20EE000A 		vmul.f32	s0, s0, s0
 256:Core/Inc/FusionMath.h ****             .x = vectorA.axis.x * vectorB.axis.x,
 182              		.loc 2 256 24 view .LVU38
 183 0012 8DED050A 		vstr.32	s0, [sp, #20]
 258:Core/Inc/FusionMath.h ****             .z = vectorA.axis.z * vectorB.axis.z,
 184              		.loc 2 258 33 view .LVU39
 185 0016 60EEA00A 		vmul.f32	s1, s1, s1
 256:Core/Inc/FusionMath.h ****             .x = vectorA.axis.x * vectorB.axis.x,
 186              		.loc 2 256 24 view .LVU40
 187 001a CDED060A 		vstr.32	s1, [sp, #24]
 259:Core/Inc/FusionMath.h ****     }};
 188              		.loc 2 259 33 view .LVU41
 189 001e 21EE011A 		vmul.f32	s2, s2, s2
 256:Core/Inc/FusionMath.h ****             .x = vectorA.axis.x * vectorB.axis.x,
 190              		.loc 2 256 24 view .LVU42
 191 0022 8DED071A 		vstr.32	s2, [sp, #28]
 261:Core/Inc/FusionMath.h **** }
 192              		.loc 2 261 5 is_stmt 1 view .LVU43
 261:Core/Inc/FusionMath.h **** }
 193              		.loc 2 261 12 is_stmt 0 view .LVU44
ARM GAS  /var/folders/w9/l2kswtfn3fs2kslkvv5vg9sh0000gn/T//ccLXrTqc.s 			page 10


 194 0026 0BAB     		add	r3, sp, #44
 195 0028 05AA     		add	r2, sp, #20
 196 002a 07CA     		ldm	r2, {r0, r1, r2}
 197 002c 83E80700 		stm	r3, {r0, r1, r2}
 198 0030 0DF1200C 		add	ip, sp, #32
 199 0034 8CE80700 		stm	ip, {r0, r1, r2}
 200              	.LBE61:
 201              	.LBE60:
 202              	.LBB62:
 203              	.LBI62:
 230:Core/Inc/FusionMath.h ****     return vector.axis.x + vector.axis.y + vector.axis.z;
 204              		.loc 2 230 21 is_stmt 1 view .LVU45
 205              	.LBB63:
 231:Core/Inc/FusionMath.h **** }
 206              		.loc 2 231 5 view .LVU46
 231:Core/Inc/FusionMath.h **** }
 207              		.loc 2 231 26 is_stmt 0 view .LVU47
 208 0038 30EE200A 		vadd.f32	s0, s0, s1
 209              	.LBE63:
 210              	.LBE62:
 300:Core/Inc/FusionMath.h **** }
 211              		.loc 2 300 1 view .LVU48
 212 003c 30EE010A 		vadd.f32	s0, s0, s2
 213 0040 0EB0     		add	sp, sp, #56
 214              	.LCFI5:
 215              		.cfi_def_cfa_offset 0
 216              		@ sp needed
 217 0042 7047     		bx	lr
 218              		.cfi_endproc
 219              	.LFE12:
 221              		.section	.text.FusionVectorNormalise,"ax",%progbits
 222              		.align	1
 223              		.syntax unified
 224              		.thumb
 225              		.thumb_func
 227              	FusionVectorNormalise:
 228              	.LFB14:
 301:Core/Inc/FusionMath.h **** 
 302:Core/Inc/FusionMath.h **** /**
 303:Core/Inc/FusionMath.h ****  * @brief Returns the vector magnitude.
 304:Core/Inc/FusionMath.h ****  * @param vector Vector.
 305:Core/Inc/FusionMath.h ****  * @return Vector magnitude.
 306:Core/Inc/FusionMath.h ****  */
 307:Core/Inc/FusionMath.h **** static inline float FusionVectorMagnitude(const FusionVector vector) {
 308:Core/Inc/FusionMath.h ****     return sqrtf(FusionVectorMagnitudeSquared(vector));
 309:Core/Inc/FusionMath.h **** }
 310:Core/Inc/FusionMath.h **** 
 311:Core/Inc/FusionMath.h **** /**
 312:Core/Inc/FusionMath.h ****  * @brief Returns the normalised vector.
 313:Core/Inc/FusionMath.h ****  * @param vector Vector.
 314:Core/Inc/FusionMath.h ****  * @return Normalised vector.
 315:Core/Inc/FusionMath.h ****  */
 316:Core/Inc/FusionMath.h **** static inline FusionVector FusionVectorNormalise(const FusionVector vector) {
 229              		.loc 2 316 77 is_stmt 1 view -0
 230              		.cfi_startproc
 231              		@ args = 0, pretend = 0, frame = 72
 232              		@ frame_needed = 0, uses_anonymous_args = 0
ARM GAS  /var/folders/w9/l2kswtfn3fs2kslkvv5vg9sh0000gn/T//ccLXrTqc.s 			page 11


 233 0000 00B5     		push	{lr}
 234              	.LCFI6:
 235              		.cfi_def_cfa_offset 4
 236              		.cfi_offset 14, -4
 237 0002 2DED048B 		vpush.64	{d8, d9}
 238              	.LCFI7:
 239              		.cfi_def_cfa_offset 20
 240              		.cfi_offset 80, -20
 241              		.cfi_offset 81, -16
 242              		.cfi_offset 82, -12
 243              		.cfi_offset 83, -8
 244 0006 93B0     		sub	sp, sp, #76
 245              	.LCFI8:
 246              		.cfi_def_cfa_offset 96
 247 0008 B0EE409A 		vmov.f32	s18, s0
 248 000c F0EE608A 		vmov.f32	s17, s1
 249 0010 B0EE418A 		vmov.f32	s16, s2
 250 0014 8DED050A 		vstr.32	s0, [sp, #20]
 251 0018 CDED060A 		vstr.32	s1, [sp, #24]
 252 001c 8DED071A 		vstr.32	s2, [sp, #28]
 317:Core/Inc/FusionMath.h **** #ifdef FUSION_USE_NORMAL_SQRT
 318:Core/Inc/FusionMath.h ****     const float magnitudeReciprocal = 1.0f / sqrtf(FusionVectorMagnitudeSquared(vector));
 319:Core/Inc/FusionMath.h **** #else
 320:Core/Inc/FusionMath.h ****     const float magnitudeReciprocal = FusionFastInverseSqrt(FusionVectorMagnitudeSquared(vector));
 253              		.loc 2 320 5 view .LVU50
 254              		.loc 2 320 61 is_stmt 0 view .LVU51
 255 0020 FFF7FEFF 		bl	FusionVectorMagnitudeSquared
 256              	.LVL0:
 257              	.LBB64:
 258              	.LBI64:
 169:Core/Inc/FusionMath.h **** 
 259              		.loc 2 169 21 is_stmt 1 view .LVU52
 260              	.LBB65:
 171:Core/Inc/FusionMath.h ****         float f;
 261              		.loc 2 171 5 view .LVU53
 176:Core/Inc/FusionMath.h ****     union32.i = 0x5F1F1412 - (union32.i >> 1);
 262              		.loc 2 176 5 view .LVU54
 177:Core/Inc/FusionMath.h ****     return union32.f * (1.69000231f - 0.714158168f * x * union32.f * union32.f);
 263              		.loc 2 177 5 view .LVU55
 178:Core/Inc/FusionMath.h **** }
 264              		.loc 2 178 5 view .LVU56
 265 0024 194B     		ldr	r3, .L9
 266 0026 10EE102A 		vmov	r2, s0	@ int
 267 002a A3EB6203 		sub	r3, r3, r2, asr #1
 268 002e 07EE103A 		vmov	s14, r3	@ int
 178:Core/Inc/FusionMath.h **** }
 269              		.loc 2 178 52 is_stmt 0 view .LVU57
 270 0032 DFED177A 		vldr.32	s15, .L9+4
 271 0036 60EE277A 		vmul.f32	s15, s0, s15
 178:Core/Inc/FusionMath.h **** }
 272              		.loc 2 178 56 view .LVU58
 273 003a 67EE277A 		vmul.f32	s15, s14, s15
 178:Core/Inc/FusionMath.h **** }
 274              		.loc 2 178 68 view .LVU59
 275 003e 67EE277A 		vmul.f32	s15, s14, s15
 178:Core/Inc/FusionMath.h **** }
 276              		.loc 2 178 37 view .LVU60
ARM GAS  /var/folders/w9/l2kswtfn3fs2kslkvv5vg9sh0000gn/T//ccLXrTqc.s 			page 12


 277 0042 DFED146A 		vldr.32	s13, .L9+8
 278 0046 76EEE77A 		vsub.f32	s15, s13, s15
 178:Core/Inc/FusionMath.h **** }
 279              		.loc 2 178 22 view .LVU61
 280 004a 67EE277A 		vmul.f32	s15, s14, s15
 281              	.LVL1:
 178:Core/Inc/FusionMath.h **** }
 282              		.loc 2 178 22 view .LVU62
 283              	.LBE65:
 284              	.LBE64:
 321:Core/Inc/FusionMath.h **** #endif
 322:Core/Inc/FusionMath.h ****     return FusionVectorMultiplyScalar(vector, magnitudeReciprocal);
 285              		.loc 2 322 5 is_stmt 1 view .LVU63
 286              	.LBB66:
 287              	.LBI66:
 240:Core/Inc/FusionMath.h ****     const FusionVector result = {.axis = {
 288              		.loc 2 240 28 view .LVU64
 289              	.LBB67:
 241:Core/Inc/FusionMath.h ****             .x = vector.axis.x * scalar,
 290              		.loc 2 241 5 view .LVU65
 242:Core/Inc/FusionMath.h ****             .y = vector.axis.y * scalar,
 291              		.loc 2 242 32 is_stmt 0 view .LVU66
 292 004e 29EE279A 		vmul.f32	s18, s18, s15
 241:Core/Inc/FusionMath.h ****             .x = vector.axis.x * scalar,
 293              		.loc 2 241 24 view .LVU67
 294 0052 8DED099A 		vstr.32	s18, [sp, #36]
 243:Core/Inc/FusionMath.h ****             .z = vector.axis.z * scalar,
 295              		.loc 2 243 32 view .LVU68
 296 0056 68EEA78A 		vmul.f32	s17, s17, s15
 241:Core/Inc/FusionMath.h ****             .x = vector.axis.x * scalar,
 297              		.loc 2 241 24 view .LVU69
 298 005a CDED0A8A 		vstr.32	s17, [sp, #40]
 244:Core/Inc/FusionMath.h ****     }};
 299              		.loc 2 244 32 view .LVU70
 300 005e 28EE278A 		vmul.f32	s16, s16, s15
 241:Core/Inc/FusionMath.h ****             .x = vector.axis.x * scalar,
 301              		.loc 2 241 24 view .LVU71
 302 0062 8DED0B8A 		vstr.32	s16, [sp, #44]
 246:Core/Inc/FusionMath.h **** }
 303              		.loc 2 246 5 is_stmt 1 view .LVU72
 246:Core/Inc/FusionMath.h **** }
 304              		.loc 2 246 12 is_stmt 0 view .LVU73
 305 0066 0FAB     		add	r3, sp, #60
 306 0068 09AA     		add	r2, sp, #36
 307 006a 07CA     		ldm	r2, {r0, r1, r2}
 308 006c 83E80700 		stm	r3, {r0, r1, r2}
 309 0070 0DF1300C 		add	ip, sp, #48
 310 0074 8CE80700 		stm	ip, {r0, r1, r2}
 311              	.LVL2:
 246:Core/Inc/FusionMath.h **** }
 312              		.loc 2 246 12 view .LVU74
 313              	.LBE67:
 314              	.LBE66:
 323:Core/Inc/FusionMath.h **** }
 315              		.loc 2 323 1 view .LVU75
 316 0078 9DED0C0A 		vldr.32	s0, [sp, #48]
 317 007c DDED0D0A 		vldr.32	s1, [sp, #52]
ARM GAS  /var/folders/w9/l2kswtfn3fs2kslkvv5vg9sh0000gn/T//ccLXrTqc.s 			page 13


 318 0080 9DED0E1A 		vldr.32	s2, [sp, #56]
 319 0084 13B0     		add	sp, sp, #76
 320              	.LCFI9:
 321              		.cfi_def_cfa_offset 20
 322              		@ sp needed
 323 0086 BDEC048B 		vldm	sp!, {d8-d9}
 324              	.LCFI10:
 325              		.cfi_restore 82
 326              		.cfi_restore 83
 327              		.cfi_restore 80
 328              		.cfi_restore 81
 329              		.cfi_def_cfa_offset 4
 330 008a 00BD     		pop	{pc}
 331              	.L10:
 332              		.align	2
 333              	.L9:
 334 008c 12141F5F 		.word	1595872274
 335 0090 12D3363F 		.word	1060557586
 336 0094 FF51D83F 		.word	1071141375
 337              		.cfi_endproc
 338              	.LFE14:
 340              		.section	.text.FusionQuaternionMultiply,"ax",%progbits
 341              		.align	1
 342              		.syntax unified
 343              		.thumb
 344              		.thumb_func
 346              	FusionQuaternionMultiply:
 347              	.LFB16:
 324:Core/Inc/FusionMath.h **** 
 325:Core/Inc/FusionMath.h **** //------------------------------------------------------------------------------
 326:Core/Inc/FusionMath.h **** // Inline functions - Quaternion operations
 327:Core/Inc/FusionMath.h **** 
 328:Core/Inc/FusionMath.h **** /**
 329:Core/Inc/FusionMath.h ****  * @brief Returns the sum of two quaternions.
 330:Core/Inc/FusionMath.h ****  * @param quaternionA Quaternion A.
 331:Core/Inc/FusionMath.h ****  * @param quaternionB Quaternion B.
 332:Core/Inc/FusionMath.h ****  * @return Sum of two quaternions.
 333:Core/Inc/FusionMath.h ****  */
 334:Core/Inc/FusionMath.h **** static inline FusionQuaternion FusionQuaternionAdd(const FusionQuaternion quaternionA, const Fusion
 335:Core/Inc/FusionMath.h ****     const FusionQuaternion result = {.element = {
 336:Core/Inc/FusionMath.h ****             .w = quaternionA.element.w + quaternionB.element.w,
 337:Core/Inc/FusionMath.h ****             .x = quaternionA.element.x + quaternionB.element.x,
 338:Core/Inc/FusionMath.h ****             .y = quaternionA.element.y + quaternionB.element.y,
 339:Core/Inc/FusionMath.h ****             .z = quaternionA.element.z + quaternionB.element.z,
 340:Core/Inc/FusionMath.h ****     }};
 341:Core/Inc/FusionMath.h ****     return result;
 342:Core/Inc/FusionMath.h **** }
 343:Core/Inc/FusionMath.h **** 
 344:Core/Inc/FusionMath.h **** /**
 345:Core/Inc/FusionMath.h ****  * @brief Returns the multiplication of two quaternions.
 346:Core/Inc/FusionMath.h ****  * @param quaternionA Quaternion A (to be post-multiplied).
 347:Core/Inc/FusionMath.h ****  * @param quaternionB Quaternion B (to be pre-multiplied).
 348:Core/Inc/FusionMath.h ****  * @return Multiplication of two quaternions.
 349:Core/Inc/FusionMath.h ****  */
 350:Core/Inc/FusionMath.h **** static inline FusionQuaternion FusionQuaternionMultiply(const FusionQuaternion quaternionA, const F
 348              		.loc 2 350 129 is_stmt 1 view -0
 349              		.cfi_startproc
ARM GAS  /var/folders/w9/l2kswtfn3fs2kslkvv5vg9sh0000gn/T//ccLXrTqc.s 			page 14


 350              		@ args = 0, pretend = 0, frame = 80
 351              		@ frame_needed = 0, uses_anonymous_args = 0
 352              		@ link register save eliminated.
 353 0000 94B0     		sub	sp, sp, #80
 354              	.LCFI11:
 355              		.cfi_def_cfa_offset 80
 356 0002 8DED080A 		vstr.32	s0, [sp, #32]
 357 0006 CDED090A 		vstr.32	s1, [sp, #36]
 358 000a 8DED0A1A 		vstr.32	s2, [sp, #40]
 359 000e CDED0B1A 		vstr.32	s3, [sp, #44]
 360 0012 8DED042A 		vstr.32	s4, [sp, #16]
 361 0016 CDED052A 		vstr.32	s5, [sp, #20]
 362 001a 8DED063A 		vstr.32	s6, [sp, #24]
 363 001e CDED073A 		vstr.32	s7, [sp, #28]
 351:Core/Inc/FusionMath.h **** #define A quaternionA.element
 352:Core/Inc/FusionMath.h **** #define B quaternionB.element
 353:Core/Inc/FusionMath.h ****     const FusionQuaternion result = {.element = {
 364              		.loc 2 353 5 view .LVU77
 354:Core/Inc/FusionMath.h ****             .w = A.w * B.w - A.x * B.x - A.y * B.y - A.z * B.z,
 365              		.loc 2 354 22 is_stmt 0 view .LVU78
 366 0022 60EE027A 		vmul.f32	s15, s0, s4
 367              		.loc 2 354 34 view .LVU79
 368 0026 20EEA27A 		vmul.f32	s14, s1, s5
 369              		.loc 2 354 28 view .LVU80
 370 002a 77EEC77A 		vsub.f32	s15, s15, s14
 371              		.loc 2 354 46 view .LVU81
 372 002e 21EE037A 		vmul.f32	s14, s2, s6
 373              		.loc 2 354 40 view .LVU82
 374 0032 77EEC77A 		vsub.f32	s15, s15, s14
 375              		.loc 2 354 58 view .LVU83
 376 0036 21EEA37A 		vmul.f32	s14, s3, s7
 377              		.loc 2 354 52 view .LVU84
 378 003a 77EEC77A 		vsub.f32	s15, s15, s14
 353:Core/Inc/FusionMath.h ****             .w = A.w * B.w - A.x * B.x - A.y * B.y - A.z * B.z,
 379              		.loc 2 353 28 view .LVU85
 380 003e CDED0C7A 		vstr.32	s15, [sp, #48]
 355:Core/Inc/FusionMath.h ****             .x = A.w * B.x + A.x * B.w + A.y * B.z - A.z * B.y,
 381              		.loc 2 355 22 view .LVU86
 382 0042 60EE227A 		vmul.f32	s15, s0, s5
 383              		.loc 2 355 34 view .LVU87
 384 0046 22EE207A 		vmul.f32	s14, s4, s1
 385              		.loc 2 355 28 view .LVU88
 386 004a 77EE877A 		vadd.f32	s15, s15, s14
 387              		.loc 2 355 46 view .LVU89
 388 004e 21EE237A 		vmul.f32	s14, s2, s7
 389              		.loc 2 355 40 view .LVU90
 390 0052 77EE877A 		vadd.f32	s15, s15, s14
 391              		.loc 2 355 58 view .LVU91
 392 0056 23EE217A 		vmul.f32	s14, s6, s3
 393              		.loc 2 355 52 view .LVU92
 394 005a 77EEC77A 		vsub.f32	s15, s15, s14
 353:Core/Inc/FusionMath.h ****             .w = A.w * B.w - A.x * B.x - A.y * B.y - A.z * B.z,
 395              		.loc 2 353 28 view .LVU93
 396 005e CDED0D7A 		vstr.32	s15, [sp, #52]
 356:Core/Inc/FusionMath.h ****             .y = A.w * B.y - A.x * B.z + A.y * B.w + A.z * B.x,
 397              		.loc 2 356 22 view .LVU94
 398 0062 60EE037A 		vmul.f32	s15, s0, s6
ARM GAS  /var/folders/w9/l2kswtfn3fs2kslkvv5vg9sh0000gn/T//ccLXrTqc.s 			page 15


 399              		.loc 2 356 34 view .LVU95
 400 0066 20EEA37A 		vmul.f32	s14, s1, s7
 401              		.loc 2 356 28 view .LVU96
 402 006a 77EEC77A 		vsub.f32	s15, s15, s14
 403              		.loc 2 356 46 view .LVU97
 404 006e 22EE017A 		vmul.f32	s14, s4, s2
 405              		.loc 2 356 40 view .LVU98
 406 0072 77EE877A 		vadd.f32	s15, s15, s14
 407              		.loc 2 356 58 view .LVU99
 408 0076 22EEA17A 		vmul.f32	s14, s5, s3
 409              		.loc 2 356 52 view .LVU100
 410 007a 77EE877A 		vadd.f32	s15, s15, s14
 353:Core/Inc/FusionMath.h ****             .w = A.w * B.w - A.x * B.x - A.y * B.y - A.z * B.z,
 411              		.loc 2 353 28 view .LVU101
 412 007e CDED0E7A 		vstr.32	s15, [sp, #56]
 357:Core/Inc/FusionMath.h ****             .z = A.w * B.z + A.x * B.y - A.y * B.x + A.z * B.w,
 413              		.loc 2 357 22 view .LVU102
 414 0082 20EE230A 		vmul.f32	s0, s0, s7
 415              		.loc 2 357 34 view .LVU103
 416 0086 60EE830A 		vmul.f32	s1, s1, s6
 417              		.loc 2 357 28 view .LVU104
 418 008a 30EE200A 		vadd.f32	s0, s0, s1
 419              		.loc 2 357 46 view .LVU105
 420 008e 62EE812A 		vmul.f32	s5, s5, s2
 421              		.loc 2 357 40 view .LVU106
 422 0092 70EE622A 		vsub.f32	s5, s0, s5
 423              		.loc 2 357 58 view .LVU107
 424 0096 22EE212A 		vmul.f32	s4, s4, s3
 425              		.loc 2 357 52 view .LVU108
 426 009a 32EE822A 		vadd.f32	s4, s5, s4
 353:Core/Inc/FusionMath.h ****             .w = A.w * B.w - A.x * B.x - A.y * B.y - A.z * B.z,
 427              		.loc 2 353 28 view .LVU109
 428 009e 8DED0F2A 		vstr.32	s4, [sp, #60]
 358:Core/Inc/FusionMath.h ****     }};
 359:Core/Inc/FusionMath.h ****     return result;
 429              		.loc 2 359 5 is_stmt 1 view .LVU110
 430              		.loc 2 359 12 is_stmt 0 view .LVU111
 431 00a2 0CAB     		add	r3, sp, #48
 432 00a4 0FCB     		ldm	r3, {r0, r1, r2, r3}
 433 00a6 0DF1500C 		add	ip, sp, #80
 434 00aa 0CE90F00 		stmdb	ip, {r0, r1, r2, r3}
 360:Core/Inc/FusionMath.h **** #undef A
 361:Core/Inc/FusionMath.h **** #undef B
 362:Core/Inc/FusionMath.h **** }
 435              		.loc 2 362 1 view .LVU112
 436 00ae 9DED100A 		vldr.32	s0, [sp, #64]
 437 00b2 DDED110A 		vldr.32	s1, [sp, #68]
 438 00b6 9DED121A 		vldr.32	s2, [sp, #72]
 439 00ba DDED131A 		vldr.32	s3, [sp, #76]
 440 00be 14B0     		add	sp, sp, #80
 441              	.LCFI12:
 442              		.cfi_def_cfa_offset 0
 443              		@ sp needed
 444 00c0 7047     		bx	lr
 445              		.cfi_endproc
 446              	.LFE16:
 448              		.section	.text.FusionQuaternionMultiplyVector,"ax",%progbits
ARM GAS  /var/folders/w9/l2kswtfn3fs2kslkvv5vg9sh0000gn/T//ccLXrTqc.s 			page 16


 449              		.align	1
 450              		.syntax unified
 451              		.thumb
 452              		.thumb_func
 454              	FusionQuaternionMultiplyVector:
 455              	.LFB17:
 363:Core/Inc/FusionMath.h **** 
 364:Core/Inc/FusionMath.h **** /**
 365:Core/Inc/FusionMath.h ****  * @brief Returns the multiplication of a quaternion with a vector.  This is a
 366:Core/Inc/FusionMath.h ****  * normal quaternion multiplication where the vector is treated a
 367:Core/Inc/FusionMath.h ****  * quaternion with a W element value of zero.  The quaternion is post-
 368:Core/Inc/FusionMath.h ****  * multiplied by the vector.
 369:Core/Inc/FusionMath.h ****  * @param quaternion Quaternion.
 370:Core/Inc/FusionMath.h ****  * @param vector Vector.
 371:Core/Inc/FusionMath.h ****  * @return Multiplication of a quaternion with a vector.
 372:Core/Inc/FusionMath.h ****  */
 373:Core/Inc/FusionMath.h **** static inline FusionQuaternion FusionQuaternionMultiplyVector(const FusionQuaternion quaternion, co
 456              		.loc 2 373 125 is_stmt 1 view -0
 457              		.cfi_startproc
 458              		@ args = 0, pretend = 0, frame = 80
 459              		@ frame_needed = 0, uses_anonymous_args = 0
 460              		@ link register save eliminated.
 461 0000 94B0     		sub	sp, sp, #80
 462              	.LCFI13:
 463              		.cfi_def_cfa_offset 80
 464 0002 8DED080A 		vstr.32	s0, [sp, #32]
 465 0006 CDED090A 		vstr.32	s1, [sp, #36]
 466 000a 8DED0A1A 		vstr.32	s2, [sp, #40]
 467 000e CDED0B1A 		vstr.32	s3, [sp, #44]
 468 0012 8DED052A 		vstr.32	s4, [sp, #20]
 469 0016 CDED062A 		vstr.32	s5, [sp, #24]
 470 001a 8DED073A 		vstr.32	s6, [sp, #28]
 374:Core/Inc/FusionMath.h **** #define Q quaternion.element
 375:Core/Inc/FusionMath.h **** #define V vector.axis
 376:Core/Inc/FusionMath.h ****     const FusionQuaternion result = {.element = {
 471              		.loc 2 376 5 view .LVU114
 377:Core/Inc/FusionMath.h ****             .w = -Q.x * V.x - Q.y * V.y - Q.z * V.z,
 472              		.loc 2 377 23 is_stmt 0 view .LVU115
 473 001e 60EEC27A 		vnmul.f32	s15, s1, s4
 474              		.loc 2 377 35 view .LVU116
 475 0022 21EE227A 		vmul.f32	s14, s2, s5
 476              		.loc 2 377 29 view .LVU117
 477 0026 77EEC77A 		vsub.f32	s15, s15, s14
 478              		.loc 2 377 47 view .LVU118
 479 002a 21EE837A 		vmul.f32	s14, s3, s6
 480              		.loc 2 377 41 view .LVU119
 481 002e 77EEC77A 		vsub.f32	s15, s15, s14
 376:Core/Inc/FusionMath.h ****             .w = -Q.x * V.x - Q.y * V.y - Q.z * V.z,
 482              		.loc 2 376 28 view .LVU120
 483 0032 CDED0C7A 		vstr.32	s15, [sp, #48]
 378:Core/Inc/FusionMath.h ****             .x = Q.w * V.x + Q.y * V.z - Q.z * V.y,
 484              		.loc 2 378 22 view .LVU121
 485 0036 62EE007A 		vmul.f32	s15, s4, s0
 486              		.loc 2 378 34 view .LVU122
 487 003a 21EE037A 		vmul.f32	s14, s2, s6
 488              		.loc 2 378 28 view .LVU123
 489 003e 77EE877A 		vadd.f32	s15, s15, s14
ARM GAS  /var/folders/w9/l2kswtfn3fs2kslkvv5vg9sh0000gn/T//ccLXrTqc.s 			page 17


 490              		.loc 2 378 46 view .LVU124
 491 0042 22EEA17A 		vmul.f32	s14, s5, s3
 492              		.loc 2 378 40 view .LVU125
 493 0046 77EEC77A 		vsub.f32	s15, s15, s14
 376:Core/Inc/FusionMath.h ****             .w = -Q.x * V.x - Q.y * V.y - Q.z * V.z,
 494              		.loc 2 376 28 view .LVU126
 495 004a CDED0D7A 		vstr.32	s15, [sp, #52]
 379:Core/Inc/FusionMath.h ****             .y = Q.w * V.y - Q.x * V.z + Q.z * V.x,
 496              		.loc 2 379 22 view .LVU127
 497 004e 62EE807A 		vmul.f32	s15, s5, s0
 498              		.loc 2 379 34 view .LVU128
 499 0052 20EE837A 		vmul.f32	s14, s1, s6
 500              		.loc 2 379 28 view .LVU129
 501 0056 77EEC77A 		vsub.f32	s15, s15, s14
 502              		.loc 2 379 46 view .LVU130
 503 005a 62EE211A 		vmul.f32	s3, s4, s3
 504              		.loc 2 379 40 view .LVU131
 505 005e 77EEA17A 		vadd.f32	s15, s15, s3
 376:Core/Inc/FusionMath.h ****             .w = -Q.x * V.x - Q.y * V.y - Q.z * V.z,
 506              		.loc 2 376 28 view .LVU132
 507 0062 CDED0E7A 		vstr.32	s15, [sp, #56]
 380:Core/Inc/FusionMath.h ****             .z = Q.w * V.z + Q.x * V.y - Q.y * V.x,
 508              		.loc 2 380 22 view .LVU133
 509 0066 23EE003A 		vmul.f32	s6, s6, s0
 510              		.loc 2 380 34 view .LVU134
 511 006a 60EEA20A 		vmul.f32	s1, s1, s5
 512              		.loc 2 380 28 view .LVU135
 513 006e 33EE203A 		vadd.f32	s6, s6, s1
 514              		.loc 2 380 46 view .LVU136
 515 0072 22EE012A 		vmul.f32	s4, s4, s2
 516              		.loc 2 380 40 view .LVU137
 517 0076 33EE423A 		vsub.f32	s6, s6, s4
 376:Core/Inc/FusionMath.h ****             .w = -Q.x * V.x - Q.y * V.y - Q.z * V.z,
 518              		.loc 2 376 28 view .LVU138
 519 007a 8DED0F3A 		vstr.32	s6, [sp, #60]
 381:Core/Inc/FusionMath.h ****     }};
 382:Core/Inc/FusionMath.h ****     return result;
 520              		.loc 2 382 5 is_stmt 1 view .LVU139
 521              		.loc 2 382 12 is_stmt 0 view .LVU140
 522 007e 0CAB     		add	r3, sp, #48
 523 0080 0FCB     		ldm	r3, {r0, r1, r2, r3}
 524 0082 0DF1500C 		add	ip, sp, #80
 525 0086 0CE90F00 		stmdb	ip, {r0, r1, r2, r3}
 383:Core/Inc/FusionMath.h **** #undef Q
 384:Core/Inc/FusionMath.h **** #undef V
 385:Core/Inc/FusionMath.h **** }
 526              		.loc 2 385 1 view .LVU141
 527 008a 9DED100A 		vldr.32	s0, [sp, #64]
 528 008e DDED110A 		vldr.32	s1, [sp, #68]
 529 0092 9DED121A 		vldr.32	s2, [sp, #72]
 530 0096 DDED131A 		vldr.32	s3, [sp, #76]
 531 009a 14B0     		add	sp, sp, #80
 532              	.LCFI14:
 533              		.cfi_def_cfa_offset 0
 534              		@ sp needed
 535 009c 7047     		bx	lr
 536              		.cfi_endproc
ARM GAS  /var/folders/w9/l2kswtfn3fs2kslkvv5vg9sh0000gn/T//ccLXrTqc.s 			page 18


 537              	.LFE17:
 539              		.section	.text.FusionQuaternionNormalise,"ax",%progbits
 540              		.align	1
 541              		.syntax unified
 542              		.thumb
 543              		.thumb_func
 545              	FusionQuaternionNormalise:
 546              	.LFB18:
 386:Core/Inc/FusionMath.h **** 
 387:Core/Inc/FusionMath.h **** /**
 388:Core/Inc/FusionMath.h ****  * @brief Returns the normalised quaternion.
 389:Core/Inc/FusionMath.h ****  * @param quaternion Quaternion.
 390:Core/Inc/FusionMath.h ****  * @return Normalised quaternion.
 391:Core/Inc/FusionMath.h ****  */
 392:Core/Inc/FusionMath.h **** static inline FusionQuaternion FusionQuaternionNormalise(const FusionQuaternion quaternion) {
 547              		.loc 2 392 93 is_stmt 1 view -0
 548              		.cfi_startproc
 549              		@ args = 0, pretend = 0, frame = 64
 550              		@ frame_needed = 0, uses_anonymous_args = 0
 551              		@ link register save eliminated.
 552 0000 90B0     		sub	sp, sp, #64
 553              	.LCFI15:
 554              		.cfi_def_cfa_offset 64
 555 0002 8DED040A 		vstr.32	s0, [sp, #16]
 556 0006 CDED050A 		vstr.32	s1, [sp, #20]
 557 000a 8DED061A 		vstr.32	s2, [sp, #24]
 558 000e CDED071A 		vstr.32	s3, [sp, #28]
 393:Core/Inc/FusionMath.h **** #define Q quaternion.element
 394:Core/Inc/FusionMath.h **** #ifdef FUSION_USE_NORMAL_SQRT
 395:Core/Inc/FusionMath.h ****     const float magnitudeReciprocal = 1.0f / sqrtf(Q.w * Q.w + Q.x * Q.x + Q.y * Q.y + Q.z * Q.z);
 396:Core/Inc/FusionMath.h **** #else
 397:Core/Inc/FusionMath.h ****     const float magnitudeReciprocal = FusionFastInverseSqrt(Q.w * Q.w + Q.x * Q.x + Q.y * Q.y + Q.z
 559              		.loc 2 397 5 view .LVU143
 560              		.loc 2 397 65 is_stmt 0 view .LVU144
 561 0012 60EE007A 		vmul.f32	s15, s0, s0
 562              		.loc 2 397 77 view .LVU145
 563 0016 20EEA07A 		vmul.f32	s14, s1, s1
 564              		.loc 2 397 71 view .LVU146
 565 001a 77EE877A 		vadd.f32	s15, s15, s14
 566              		.loc 2 397 89 view .LVU147
 567 001e 21EE017A 		vmul.f32	s14, s2, s2
 568              		.loc 2 397 83 view .LVU148
 569 0022 77EE877A 		vadd.f32	s15, s15, s14
 570              		.loc 2 397 101 view .LVU149
 571 0026 21EEA17A 		vmul.f32	s14, s3, s3
 572              		.loc 2 397 95 view .LVU150
 573 002a 77EE877A 		vadd.f32	s15, s15, s14
 574              	.LVL3:
 575              	.LBB68:
 576              	.LBI68:
 169:Core/Inc/FusionMath.h **** 
 577              		.loc 2 169 21 is_stmt 1 view .LVU151
 578              	.LBB69:
 171:Core/Inc/FusionMath.h ****         float f;
 579              		.loc 2 171 5 view .LVU152
 176:Core/Inc/FusionMath.h ****     union32.i = 0x5F1F1412 - (union32.i >> 1);
 580              		.loc 2 176 5 view .LVU153
ARM GAS  /var/folders/w9/l2kswtfn3fs2kslkvv5vg9sh0000gn/T//ccLXrTqc.s 			page 19


 177:Core/Inc/FusionMath.h ****     return union32.f * (1.69000231f - 0.714158168f * x * union32.f * union32.f);
 581              		.loc 2 177 5 view .LVU154
 178:Core/Inc/FusionMath.h **** }
 582              		.loc 2 178 5 view .LVU155
 583 002e 1A4B     		ldr	r3, .L17
 584 0030 17EE902A 		vmov	r2, s15	@ int
 585 0034 A3EB6203 		sub	r3, r3, r2, asr #1
 586 0038 07EE103A 		vmov	s14, r3	@ int
 178:Core/Inc/FusionMath.h **** }
 587              		.loc 2 178 52 is_stmt 0 view .LVU156
 588 003c DFED176A 		vldr.32	s13, .L17+4
 589 0040 67EEA67A 		vmul.f32	s15, s15, s13
 590              	.LVL4:
 178:Core/Inc/FusionMath.h **** }
 591              		.loc 2 178 56 view .LVU157
 592 0044 67EE277A 		vmul.f32	s15, s14, s15
 178:Core/Inc/FusionMath.h **** }
 593              		.loc 2 178 68 view .LVU158
 594 0048 67EE277A 		vmul.f32	s15, s14, s15
 178:Core/Inc/FusionMath.h **** }
 595              		.loc 2 178 37 view .LVU159
 596 004c DFED146A 		vldr.32	s13, .L17+8
 597 0050 76EEE77A 		vsub.f32	s15, s13, s15
 178:Core/Inc/FusionMath.h **** }
 598              		.loc 2 178 22 view .LVU160
 599 0054 67EE277A 		vmul.f32	s15, s14, s15
 600              	.LVL5:
 178:Core/Inc/FusionMath.h **** }
 601              		.loc 2 178 22 view .LVU161
 602              	.LBE69:
 603              	.LBE68:
 398:Core/Inc/FusionMath.h **** #endif
 399:Core/Inc/FusionMath.h ****     const FusionQuaternion result = {.element = {
 604              		.loc 2 399 5 is_stmt 1 view .LVU162
 400:Core/Inc/FusionMath.h ****             .w = Q.w * magnitudeReciprocal,
 605              		.loc 2 400 22 is_stmt 0 view .LVU163
 606 0058 20EE270A 		vmul.f32	s0, s0, s15
 399:Core/Inc/FusionMath.h ****             .w = Q.w * magnitudeReciprocal,
 607              		.loc 2 399 28 view .LVU164
 608 005c 8DED080A 		vstr.32	s0, [sp, #32]
 401:Core/Inc/FusionMath.h ****             .x = Q.x * magnitudeReciprocal,
 609              		.loc 2 401 22 view .LVU165
 610 0060 60EEA70A 		vmul.f32	s1, s1, s15
 399:Core/Inc/FusionMath.h ****             .w = Q.w * magnitudeReciprocal,
 611              		.loc 2 399 28 view .LVU166
 612 0064 CDED090A 		vstr.32	s1, [sp, #36]
 402:Core/Inc/FusionMath.h ****             .y = Q.y * magnitudeReciprocal,
 613              		.loc 2 402 22 view .LVU167
 614 0068 21EE271A 		vmul.f32	s2, s2, s15
 399:Core/Inc/FusionMath.h ****             .w = Q.w * magnitudeReciprocal,
 615              		.loc 2 399 28 view .LVU168
 616 006c 8DED0A1A 		vstr.32	s2, [sp, #40]
 403:Core/Inc/FusionMath.h ****             .z = Q.z * magnitudeReciprocal,
 617              		.loc 2 403 22 view .LVU169
 618 0070 61EEA71A 		vmul.f32	s3, s3, s15
 399:Core/Inc/FusionMath.h ****             .w = Q.w * magnitudeReciprocal,
 619              		.loc 2 399 28 view .LVU170
ARM GAS  /var/folders/w9/l2kswtfn3fs2kslkvv5vg9sh0000gn/T//ccLXrTqc.s 			page 20


 620 0074 CDED0B1A 		vstr.32	s3, [sp, #44]
 404:Core/Inc/FusionMath.h ****     }};
 405:Core/Inc/FusionMath.h ****     return result;
 621              		.loc 2 405 5 is_stmt 1 view .LVU171
 622              		.loc 2 405 12 is_stmt 0 view .LVU172
 623 0078 08AB     		add	r3, sp, #32
 624 007a 0FCB     		ldm	r3, {r0, r1, r2, r3}
 625 007c 0DF1400C 		add	ip, sp, #64
 626 0080 0CE90F00 		stmdb	ip, {r0, r1, r2, r3}
 406:Core/Inc/FusionMath.h **** #undef Q
 407:Core/Inc/FusionMath.h **** }
 627              		.loc 2 407 1 view .LVU173
 628 0084 9DED0C0A 		vldr.32	s0, [sp, #48]
 629 0088 DDED0D0A 		vldr.32	s1, [sp, #52]
 630 008c 9DED0E1A 		vldr.32	s2, [sp, #56]
 631 0090 DDED0F1A 		vldr.32	s3, [sp, #60]
 632 0094 10B0     		add	sp, sp, #64
 633              	.LCFI16:
 634              		.cfi_def_cfa_offset 0
 635              		@ sp needed
 636 0096 7047     		bx	lr
 637              	.L18:
 638              		.align	2
 639              	.L17:
 640 0098 12141F5F 		.word	1595872274
 641 009c 12D3363F 		.word	1060557586
 642 00a0 FF51D83F 		.word	1071141375
 643              		.cfi_endproc
 644              	.LFE18:
 646              		.section	.text.HalfGravity,"ax",%progbits
 647              		.align	1
 648              		.syntax unified
 649              		.thumb
 650              		.thumb_func
 652              	HalfGravity:
 653              	.LVL6:
 654              	.LFB26:
   1:Core/Src/FusionAhrs.c **** /**
   2:Core/Src/FusionAhrs.c ****  * @file FusionAhrs.c
   3:Core/Src/FusionAhrs.c ****  * @author Seb Madgwick
   4:Core/Src/FusionAhrs.c ****  * @brief AHRS algorithm to combine gyroscope, accelerometer, and magnetometer
   5:Core/Src/FusionAhrs.c ****  * measurements into a single measurement of orientation relative to the Earth.
   6:Core/Src/FusionAhrs.c ****  */
   7:Core/Src/FusionAhrs.c **** 
   8:Core/Src/FusionAhrs.c **** //------------------------------------------------------------------------------
   9:Core/Src/FusionAhrs.c **** // Includes
  10:Core/Src/FusionAhrs.c **** 
  11:Core/Src/FusionAhrs.c **** #include <float.h> // FLT_MAX
  12:Core/Src/FusionAhrs.c **** #include "FusionAhrs.h"
  13:Core/Src/FusionAhrs.c **** #include <math.h> // atan2f, cosf, powf, sinf
  14:Core/Src/FusionAhrs.c **** 
  15:Core/Src/FusionAhrs.c **** //------------------------------------------------------------------------------
  16:Core/Src/FusionAhrs.c **** // Definitions
  17:Core/Src/FusionAhrs.c **** 
  18:Core/Src/FusionAhrs.c **** /**
  19:Core/Src/FusionAhrs.c ****  * @brief Initial gain used during the initialisation.
  20:Core/Src/FusionAhrs.c ****  */
ARM GAS  /var/folders/w9/l2kswtfn3fs2kslkvv5vg9sh0000gn/T//ccLXrTqc.s 			page 21


  21:Core/Src/FusionAhrs.c **** #define INITIAL_GAIN (10.0f)
  22:Core/Src/FusionAhrs.c **** 
  23:Core/Src/FusionAhrs.c **** /**
  24:Core/Src/FusionAhrs.c ****  * @brief Initialisation period in seconds.
  25:Core/Src/FusionAhrs.c ****  */
  26:Core/Src/FusionAhrs.c **** #define INITIALISATION_PERIOD (3.0f)
  27:Core/Src/FusionAhrs.c **** 
  28:Core/Src/FusionAhrs.c **** //------------------------------------------------------------------------------
  29:Core/Src/FusionAhrs.c **** // Function declarations
  30:Core/Src/FusionAhrs.c **** 
  31:Core/Src/FusionAhrs.c **** static inline FusionVector HalfGravity(const FusionAhrs *const ahrs);
  32:Core/Src/FusionAhrs.c **** 
  33:Core/Src/FusionAhrs.c **** static inline FusionVector HalfMagnetic(const FusionAhrs *const ahrs);
  34:Core/Src/FusionAhrs.c **** 
  35:Core/Src/FusionAhrs.c **** static inline FusionVector Feedback(const FusionVector sensor, const FusionVector reference);
  36:Core/Src/FusionAhrs.c **** 
  37:Core/Src/FusionAhrs.c **** static inline int Clamp(const int value, const int min, const int max);
  38:Core/Src/FusionAhrs.c **** 
  39:Core/Src/FusionAhrs.c **** //------------------------------------------------------------------------------
  40:Core/Src/FusionAhrs.c **** // Functions
  41:Core/Src/FusionAhrs.c **** 
  42:Core/Src/FusionAhrs.c **** /**
  43:Core/Src/FusionAhrs.c ****  * @brief Initialises the AHRS algorithm structure.
  44:Core/Src/FusionAhrs.c ****  * @param ahrs AHRS algorithm structure.
  45:Core/Src/FusionAhrs.c ****  */
  46:Core/Src/FusionAhrs.c **** void FusionAhrsInitialise(FusionAhrs *const ahrs) {
  47:Core/Src/FusionAhrs.c ****     const FusionAhrsSettings settings = {
  48:Core/Src/FusionAhrs.c ****             .convention = FusionConventionNwu,
  49:Core/Src/FusionAhrs.c ****             .gain = 0.5f,
  50:Core/Src/FusionAhrs.c ****             .gyroscopeRange = 0.0f,
  51:Core/Src/FusionAhrs.c ****             .accelerationRejection = 90.0f,
  52:Core/Src/FusionAhrs.c ****             .magneticRejection = 90.0f,
  53:Core/Src/FusionAhrs.c ****             .recoveryTriggerPeriod = 0,
  54:Core/Src/FusionAhrs.c ****     };
  55:Core/Src/FusionAhrs.c ****     FusionAhrsSetSettings(ahrs, &settings);
  56:Core/Src/FusionAhrs.c ****     FusionAhrsReset(ahrs);
  57:Core/Src/FusionAhrs.c **** }
  58:Core/Src/FusionAhrs.c **** 
  59:Core/Src/FusionAhrs.c **** /**
  60:Core/Src/FusionAhrs.c ****  * @brief Resets the AHRS algorithm.  This is equivalent to reinitialising the
  61:Core/Src/FusionAhrs.c ****  * algorithm while maintaining the current settings.
  62:Core/Src/FusionAhrs.c ****  * @param ahrs AHRS algorithm structure.
  63:Core/Src/FusionAhrs.c ****  */
  64:Core/Src/FusionAhrs.c **** void FusionAhrsReset(FusionAhrs *const ahrs) {
  65:Core/Src/FusionAhrs.c ****     ahrs->quaternion = FUSION_IDENTITY_QUATERNION;
  66:Core/Src/FusionAhrs.c ****     ahrs->accelerometer = FUSION_VECTOR_ZERO;
  67:Core/Src/FusionAhrs.c ****     ahrs->initialising = true;
  68:Core/Src/FusionAhrs.c ****     ahrs->rampedGain = INITIAL_GAIN;
  69:Core/Src/FusionAhrs.c ****     ahrs->angularRateRecovery = false;
  70:Core/Src/FusionAhrs.c ****     ahrs->halfAccelerometerFeedback = FUSION_VECTOR_ZERO;
  71:Core/Src/FusionAhrs.c ****     ahrs->halfMagnetometerFeedback = FUSION_VECTOR_ZERO;
  72:Core/Src/FusionAhrs.c ****     ahrs->accelerometerIgnored = false;
  73:Core/Src/FusionAhrs.c ****     ahrs->accelerationRecoveryTrigger = 0;
  74:Core/Src/FusionAhrs.c ****     ahrs->accelerationRecoveryTimeout = ahrs->settings.recoveryTriggerPeriod;
  75:Core/Src/FusionAhrs.c ****     ahrs->magnetometerIgnored = false;
  76:Core/Src/FusionAhrs.c ****     ahrs->magneticRecoveryTrigger = 0;
  77:Core/Src/FusionAhrs.c ****     ahrs->magneticRecoveryTimeout = ahrs->settings.recoveryTriggerPeriod;
ARM GAS  /var/folders/w9/l2kswtfn3fs2kslkvv5vg9sh0000gn/T//ccLXrTqc.s 			page 22


  78:Core/Src/FusionAhrs.c **** }
  79:Core/Src/FusionAhrs.c **** 
  80:Core/Src/FusionAhrs.c **** /**
  81:Core/Src/FusionAhrs.c ****  * @brief Sets the AHRS algorithm settings.
  82:Core/Src/FusionAhrs.c ****  * @param ahrs AHRS algorithm structure.
  83:Core/Src/FusionAhrs.c ****  * @param settings Settings.
  84:Core/Src/FusionAhrs.c ****  */
  85:Core/Src/FusionAhrs.c **** void FusionAhrsSetSettings(FusionAhrs *const ahrs, const FusionAhrsSettings *const settings) {
  86:Core/Src/FusionAhrs.c ****     ahrs->settings.convention = settings->convention;
  87:Core/Src/FusionAhrs.c ****     ahrs->settings.gain = settings->gain;
  88:Core/Src/FusionAhrs.c ****     ahrs->settings.gyroscopeRange = settings->gyroscopeRange == 0.0f ? FLT_MAX : 0.98f * settings->
  89:Core/Src/FusionAhrs.c ****     ahrs->settings.accelerationRejection = settings->accelerationRejection == 0.0f ? FLT_MAX : powf
  90:Core/Src/FusionAhrs.c ****     ahrs->settings.magneticRejection = settings->magneticRejection == 0.0f ? FLT_MAX : powf(0.5f * 
  91:Core/Src/FusionAhrs.c ****     ahrs->settings.recoveryTriggerPeriod = settings->recoveryTriggerPeriod;
  92:Core/Src/FusionAhrs.c ****     ahrs->accelerationRecoveryTimeout = ahrs->settings.recoveryTriggerPeriod;
  93:Core/Src/FusionAhrs.c ****     ahrs->magneticRecoveryTimeout = ahrs->settings.recoveryTriggerPeriod;
  94:Core/Src/FusionAhrs.c ****     if ((settings->gain == 0.0f) || (settings->recoveryTriggerPeriod == 0)) { // disable accelerati
  95:Core/Src/FusionAhrs.c ****         ahrs->settings.accelerationRejection = FLT_MAX;
  96:Core/Src/FusionAhrs.c ****         ahrs->settings.magneticRejection = FLT_MAX;
  97:Core/Src/FusionAhrs.c ****     }
  98:Core/Src/FusionAhrs.c ****     if (ahrs->initialising == false) {
  99:Core/Src/FusionAhrs.c ****         ahrs->rampedGain = ahrs->settings.gain;
 100:Core/Src/FusionAhrs.c ****     }
 101:Core/Src/FusionAhrs.c ****     ahrs->rampedGainStep = (INITIAL_GAIN - ahrs->settings.gain) / INITIALISATION_PERIOD;
 102:Core/Src/FusionAhrs.c **** }
 103:Core/Src/FusionAhrs.c **** 
 104:Core/Src/FusionAhrs.c **** /**
 105:Core/Src/FusionAhrs.c ****  * @brief Updates the AHRS algorithm using the gyroscope, accelerometer, and
 106:Core/Src/FusionAhrs.c ****  * magnetometer measurements.
 107:Core/Src/FusionAhrs.c ****  * @param ahrs AHRS algorithm structure.
 108:Core/Src/FusionAhrs.c ****  * @param gyroscope Gyroscope measurement in degrees per second.
 109:Core/Src/FusionAhrs.c ****  * @param accelerometer Accelerometer measurement in g.
 110:Core/Src/FusionAhrs.c ****  * @param magnetometer Magnetometer measurement in arbitrary units.
 111:Core/Src/FusionAhrs.c ****  * @param deltaTime Delta time in seconds.
 112:Core/Src/FusionAhrs.c ****  */
 113:Core/Src/FusionAhrs.c **** void FusionAhrsUpdate(FusionAhrs *const ahrs, const FusionVector gyroscope, const FusionVector acce
 114:Core/Src/FusionAhrs.c **** #define Q ahrs->quaternion.element
 115:Core/Src/FusionAhrs.c **** 
 116:Core/Src/FusionAhrs.c ****     // Store accelerometer
 117:Core/Src/FusionAhrs.c ****     ahrs->accelerometer = accelerometer;
 118:Core/Src/FusionAhrs.c **** 
 119:Core/Src/FusionAhrs.c ****     // Reinitialise if gyroscope range exceeded
 120:Core/Src/FusionAhrs.c ****     if ((fabs(gyroscope.axis.x) > ahrs->settings.gyroscopeRange) || (fabs(gyroscope.axis.y) > ahrs-
 121:Core/Src/FusionAhrs.c ****         const FusionQuaternion quaternion = ahrs->quaternion;
 122:Core/Src/FusionAhrs.c ****         FusionAhrsReset(ahrs);
 123:Core/Src/FusionAhrs.c ****         ahrs->quaternion = quaternion;
 124:Core/Src/FusionAhrs.c ****         ahrs->angularRateRecovery = true;
 125:Core/Src/FusionAhrs.c ****     }
 126:Core/Src/FusionAhrs.c **** 
 127:Core/Src/FusionAhrs.c ****     // Ramp down gain during initialisation
 128:Core/Src/FusionAhrs.c ****     if (ahrs->initialising == true) {
 129:Core/Src/FusionAhrs.c ****         ahrs->rampedGain -= ahrs->rampedGainStep * deltaTime;
 130:Core/Src/FusionAhrs.c ****         if ((ahrs->rampedGain < ahrs->settings.gain) || (ahrs->settings.gain == 0.0f)) {
 131:Core/Src/FusionAhrs.c ****             ahrs->rampedGain = ahrs->settings.gain;
 132:Core/Src/FusionAhrs.c ****             ahrs->initialising = false;
 133:Core/Src/FusionAhrs.c ****             ahrs->angularRateRecovery = false;
 134:Core/Src/FusionAhrs.c ****         }
ARM GAS  /var/folders/w9/l2kswtfn3fs2kslkvv5vg9sh0000gn/T//ccLXrTqc.s 			page 23


 135:Core/Src/FusionAhrs.c ****     }
 136:Core/Src/FusionAhrs.c **** 
 137:Core/Src/FusionAhrs.c ****     // Calculate direction of gravity indicated by algorithm
 138:Core/Src/FusionAhrs.c ****     const FusionVector halfGravity = HalfGravity(ahrs);
 139:Core/Src/FusionAhrs.c **** 		
 140:Core/Src/FusionAhrs.c ****     // Calculate accelerometer feedback
 141:Core/Src/FusionAhrs.c ****     FusionVector halfAccelerometerFeedback = FUSION_VECTOR_ZERO;
 142:Core/Src/FusionAhrs.c ****     ahrs->accelerometerIgnored = true;
 143:Core/Src/FusionAhrs.c ****     if (FusionVectorIsZero(accelerometer) == false) {
 144:Core/Src/FusionAhrs.c **** 
 145:Core/Src/FusionAhrs.c ****         // Calculate accelerometer feedback scaled by 0.5
 146:Core/Src/FusionAhrs.c ****         ahrs->halfAccelerometerFeedback = Feedback(FusionVectorNormalise(accelerometer), halfGravit
 147:Core/Src/FusionAhrs.c **** 
 148:Core/Src/FusionAhrs.c ****         // Don't ignore accelerometer if acceleration error below threshold
 149:Core/Src/FusionAhrs.c ****         if ((ahrs->initialising == true) || ((FusionVectorMagnitudeSquared(ahrs->halfAccelerometerF
 150:Core/Src/FusionAhrs.c ****             ahrs->accelerometerIgnored = false;
 151:Core/Src/FusionAhrs.c ****             ahrs->accelerationRecoveryTrigger -= 9;
 152:Core/Src/FusionAhrs.c ****         } else {
 153:Core/Src/FusionAhrs.c ****             ahrs->accelerationRecoveryTrigger += 1;
 154:Core/Src/FusionAhrs.c ****         }
 155:Core/Src/FusionAhrs.c **** 
 156:Core/Src/FusionAhrs.c ****         // Don't ignore accelerometer during acceleration recovery
 157:Core/Src/FusionAhrs.c ****         if (ahrs->accelerationRecoveryTrigger > ahrs->accelerationRecoveryTimeout) {
 158:Core/Src/FusionAhrs.c ****             ahrs->accelerationRecoveryTimeout = 0;
 159:Core/Src/FusionAhrs.c ****             ahrs->accelerometerIgnored = false;
 160:Core/Src/FusionAhrs.c ****         } else {
 161:Core/Src/FusionAhrs.c ****             ahrs->accelerationRecoveryTimeout = ahrs->settings.recoveryTriggerPeriod;
 162:Core/Src/FusionAhrs.c ****         }
 163:Core/Src/FusionAhrs.c ****         ahrs->accelerationRecoveryTrigger = Clamp(ahrs->accelerationRecoveryTrigger, 0, ahrs->setti
 164:Core/Src/FusionAhrs.c **** 
 165:Core/Src/FusionAhrs.c ****         // Apply accelerometer feedback
 166:Core/Src/FusionAhrs.c ****         if (ahrs->accelerometerIgnored == false) {
 167:Core/Src/FusionAhrs.c ****             halfAccelerometerFeedback = ahrs->halfAccelerometerFeedback;
 168:Core/Src/FusionAhrs.c ****         }
 169:Core/Src/FusionAhrs.c ****     }
 170:Core/Src/FusionAhrs.c **** 
 171:Core/Src/FusionAhrs.c ****     // Calculate magnetometer feedback
 172:Core/Src/FusionAhrs.c ****     FusionVector halfMagnetometerFeedback = FUSION_VECTOR_ZERO;
 173:Core/Src/FusionAhrs.c ****     ahrs->magnetometerIgnored = true;
 174:Core/Src/FusionAhrs.c **** 		
 175:Core/Src/FusionAhrs.c ****     if (FusionVectorIsZero(magnetometer) == false) {
 176:Core/Src/FusionAhrs.c **** 
 177:Core/Src/FusionAhrs.c ****         // Calculate direction of magnetic field indicated by algorithm
 178:Core/Src/FusionAhrs.c ****         const FusionVector halfMagnetic = HalfMagnetic(ahrs);
 179:Core/Src/FusionAhrs.c **** 			
 180:Core/Src/FusionAhrs.c ****         // Calculate magnetometer feedback scaled by 0.5
 181:Core/Src/FusionAhrs.c ****         ahrs->halfMagnetometerFeedback = Feedback(FusionVectorNormalise(FusionVectorCrossProduct(ha
 182:Core/Src/FusionAhrs.c **** 			
 183:Core/Src/FusionAhrs.c ****         // Don't ignore magnetometer if magnetic error below threshold
 184:Core/Src/FusionAhrs.c ****         if ((ahrs->initialising == true) || ((FusionVectorMagnitudeSquared(ahrs->halfMagnetometerFe
 185:Core/Src/FusionAhrs.c ****             ahrs->magnetometerIgnored = false;
 186:Core/Src/FusionAhrs.c ****             ahrs->magneticRecoveryTrigger -= 9;
 187:Core/Src/FusionAhrs.c ****         } else {
 188:Core/Src/FusionAhrs.c ****             ahrs->magneticRecoveryTrigger += 1;
 189:Core/Src/FusionAhrs.c ****         }
 190:Core/Src/FusionAhrs.c **** 
 191:Core/Src/FusionAhrs.c ****         // Don't ignore magnetometer during magnetic recovery
ARM GAS  /var/folders/w9/l2kswtfn3fs2kslkvv5vg9sh0000gn/T//ccLXrTqc.s 			page 24


 192:Core/Src/FusionAhrs.c ****         if (ahrs->magneticRecoveryTrigger > ahrs->magneticRecoveryTimeout) {
 193:Core/Src/FusionAhrs.c ****             ahrs->magneticRecoveryTimeout = 0;
 194:Core/Src/FusionAhrs.c ****             ahrs->magnetometerIgnored = false;
 195:Core/Src/FusionAhrs.c ****         } else {
 196:Core/Src/FusionAhrs.c ****             ahrs->magneticRecoveryTimeout = ahrs->settings.recoveryTriggerPeriod;
 197:Core/Src/FusionAhrs.c ****         }
 198:Core/Src/FusionAhrs.c ****         ahrs->magneticRecoveryTrigger = Clamp(ahrs->magneticRecoveryTrigger, 0, ahrs->settings.reco
 199:Core/Src/FusionAhrs.c **** 
 200:Core/Src/FusionAhrs.c ****         // Apply magnetometer feedback
 201:Core/Src/FusionAhrs.c ****         if (ahrs->magnetometerIgnored == false) {
 202:Core/Src/FusionAhrs.c ****             halfMagnetometerFeedback = ahrs->halfMagnetometerFeedback;
 203:Core/Src/FusionAhrs.c ****         }
 204:Core/Src/FusionAhrs.c ****     }
 205:Core/Src/FusionAhrs.c **** 
 206:Core/Src/FusionAhrs.c ****     // Convert gyroscope to radians per second scaled by 0.5
 207:Core/Src/FusionAhrs.c ****     const FusionVector halfGyroscope = FusionVectorMultiplyScalar(gyroscope, FusionDegreesToRadians
 208:Core/Src/FusionAhrs.c **** 
 209:Core/Src/FusionAhrs.c ****     // Apply feedback to gyroscope
 210:Core/Src/FusionAhrs.c ****     const FusionVector adjustedHalfGyroscope = FusionVectorAdd(halfGyroscope, FusionVectorMultiplyS
 211:Core/Src/FusionAhrs.c **** 
 212:Core/Src/FusionAhrs.c ****     // Integrate rate of change of quaternion
 213:Core/Src/FusionAhrs.c ****     ahrs->quaternion = FusionQuaternionAdd(ahrs->quaternion, FusionQuaternionMultiplyVector(ahrs->q
 214:Core/Src/FusionAhrs.c **** 
 215:Core/Src/FusionAhrs.c ****     // Normalise quaternion
 216:Core/Src/FusionAhrs.c ****     ahrs->quaternion = FusionQuaternionNormalise(ahrs->quaternion);
 217:Core/Src/FusionAhrs.c **** #undef Q
 218:Core/Src/FusionAhrs.c **** }
 219:Core/Src/FusionAhrs.c **** 
 220:Core/Src/FusionAhrs.c **** /**
 221:Core/Src/FusionAhrs.c ****  * @brief Returns the direction of gravity scaled by 0.5.
 222:Core/Src/FusionAhrs.c ****  * @param ahrs AHRS algorithm structure.
 223:Core/Src/FusionAhrs.c ****  * @return Direction of gravity scaled by 0.5.
 224:Core/Src/FusionAhrs.c ****  */
 225:Core/Src/FusionAhrs.c **** static inline FusionVector HalfGravity(const FusionAhrs *const ahrs) {
 655              		.loc 1 225 70 is_stmt 1 view -0
 656              		.cfi_startproc
 657              		@ args = 0, pretend = 0, frame = 40
 658              		@ frame_needed = 0, uses_anonymous_args = 0
 659              		@ link register save eliminated.
 660              		.loc 1 225 70 is_stmt 0 view .LVU175
 661 0000 8AB0     		sub	sp, sp, #40
 662              	.LCFI17:
 663              		.cfi_def_cfa_offset 40
 226:Core/Src/FusionAhrs.c **** #define Q ahrs->quaternion.element
 227:Core/Src/FusionAhrs.c ****     switch (ahrs->settings.convention) {
 664              		.loc 1 227 5 is_stmt 1 view .LVU176
 665              		.loc 1 227 27 is_stmt 0 view .LVU177
 666 0002 0378     		ldrb	r3, [r0]	@ zero_extendqisi2
 667              		.loc 1 227 5 view .LVU178
 668 0004 012B     		cmp	r3, #1
 669 0006 2ED9     		bls	.L20
 670 0008 022B     		cmp	r3, #2
 671 000a 5ED1     		bne	.L26
 672              	.LBB70:
 228:Core/Src/FusionAhrs.c ****         case FusionConventionNwu:
 229:Core/Src/FusionAhrs.c ****         case FusionConventionEnu: {
 230:Core/Src/FusionAhrs.c ****             const FusionVector halfGravity = {.axis = {
ARM GAS  /var/folders/w9/l2kswtfn3fs2kslkvv5vg9sh0000gn/T//ccLXrTqc.s 			page 25


 231:Core/Src/FusionAhrs.c ****                     .x = Q.x * Q.z - Q.w * Q.y,
 232:Core/Src/FusionAhrs.c ****                     .y = Q.y * Q.z + Q.w * Q.x,
 233:Core/Src/FusionAhrs.c ****                     .z = Q.w * Q.w - 0.5f + Q.z * Q.z,
 234:Core/Src/FusionAhrs.c ****             }}; // third column of transposed rotation matrix scaled by 0.5
 235:Core/Src/FusionAhrs.c ****             return halfGravity;
 236:Core/Src/FusionAhrs.c ****         }
 237:Core/Src/FusionAhrs.c ****         case FusionConventionNed: {
 238:Core/Src/FusionAhrs.c ****             const FusionVector halfGravity = {.axis = {
 673              		.loc 1 238 13 is_stmt 1 view .LVU179
 239:Core/Src/FusionAhrs.c ****                     .x = Q.w * Q.y - Q.x * Q.z,
 674              		.loc 1 239 27 is_stmt 0 view .LVU180
 675 000c D0ED066A 		vldr.32	s13, [r0, #24]
 676              		.loc 1 239 33 view .LVU181
 677 0010 D0ED087A 		vldr.32	s15, [r0, #32]
 678              		.loc 1 239 30 view .LVU182
 679 0014 66EEA75A 		vmul.f32	s11, s13, s15
 680              		.loc 1 239 39 view .LVU183
 681 0018 90ED076A 		vldr.32	s12, [r0, #28]
 682              		.loc 1 239 45 view .LVU184
 683 001c 90ED097A 		vldr.32	s14, [r0, #36]
 684              		.loc 1 239 42 view .LVU185
 685 0020 26EE075A 		vmul.f32	s10, s12, s14
 686              		.loc 1 239 36 view .LVU186
 687 0024 75EEC55A 		vsub.f32	s11, s11, s10
 238:Core/Src/FusionAhrs.c ****                     .x = Q.w * Q.y - Q.x * Q.z,
 688              		.loc 1 238 32 view .LVU187
 689 0028 CDED045A 		vstr.32	s11, [sp, #16]
 240:Core/Src/FusionAhrs.c ****                     .y = -1.0f * (Q.y * Q.z + Q.w * Q.x),
 690              		.loc 1 240 39 view .LVU188
 691 002c 67EE877A 		vmul.f32	s15, s15, s14
 692              		.loc 1 240 51 view .LVU189
 693 0030 26EE866A 		vmul.f32	s12, s13, s12
 694              		.loc 1 240 45 view .LVU190
 695 0034 77EE867A 		vadd.f32	s15, s15, s12
 696              		.loc 1 240 32 view .LVU191
 697 0038 F1EE677A 		vneg.f32	s15, s15
 238:Core/Src/FusionAhrs.c ****                     .x = Q.w * Q.y - Q.x * Q.z,
 698              		.loc 1 238 32 view .LVU192
 699 003c CDED057A 		vstr.32	s15, [sp, #20]
 241:Core/Src/FusionAhrs.c ****                     .z = 0.5f - Q.w * Q.w - Q.z * Q.z,
 700              		.loc 1 241 37 view .LVU193
 701 0040 66EEA66A 		vmul.f32	s13, s13, s13
 702              		.loc 1 241 31 view .LVU194
 703 0044 F6EE007A 		vmov.f32	s15, #5.0e-1
 704 0048 77EEE67A 		vsub.f32	s15, s15, s13
 705              		.loc 1 241 49 view .LVU195
 706 004c 27EE077A 		vmul.f32	s14, s14, s14
 707              		.loc 1 241 43 view .LVU196
 708 0050 77EEC77A 		vsub.f32	s15, s15, s14
 238:Core/Src/FusionAhrs.c ****                     .x = Q.w * Q.y - Q.x * Q.z,
 709              		.loc 1 238 32 view .LVU197
 710 0054 CDED067A 		vstr.32	s15, [sp, #24]
 242:Core/Src/FusionAhrs.c ****             }}; // third column of transposed rotation matrix scaled by -0.5
 243:Core/Src/FusionAhrs.c ****             return halfGravity;
 711              		.loc 1 243 13 is_stmt 1 view .LVU198
 712              		.loc 1 243 20 is_stmt 0 view .LVU199
 713 0058 04AB     		add	r3, sp, #16
ARM GAS  /var/folders/w9/l2kswtfn3fs2kslkvv5vg9sh0000gn/T//ccLXrTqc.s 			page 26


 714 005a 93E80700 		ldm	r3, {r0, r1, r2}
 715              	.LVL7:
 716              		.loc 1 243 20 view .LVU200
 717 005e 0AAB     		add	r3, sp, #40
 718 0060 03E90700 		stmdb	r3, {r0, r1, r2}
 719 0064 29E0     		b	.L23
 720              	.LVL8:
 721              	.L20:
 722              		.loc 1 243 20 view .LVU201
 723              	.LBE70:
 724              	.LBB71:
 230:Core/Src/FusionAhrs.c ****                     .x = Q.x * Q.z - Q.w * Q.y,
 725              		.loc 1 230 13 is_stmt 1 view .LVU202
 231:Core/Src/FusionAhrs.c ****                     .y = Q.y * Q.z + Q.w * Q.x,
 726              		.loc 1 231 27 is_stmt 0 view .LVU203
 727 0066 90ED076A 		vldr.32	s12, [r0, #28]
 231:Core/Src/FusionAhrs.c ****                     .y = Q.y * Q.z + Q.w * Q.x,
 728              		.loc 1 231 33 view .LVU204
 729 006a 90ED097A 		vldr.32	s14, [r0, #36]
 231:Core/Src/FusionAhrs.c ****                     .y = Q.y * Q.z + Q.w * Q.x,
 730              		.loc 1 231 30 view .LVU205
 731 006e 66EE075A 		vmul.f32	s11, s12, s14
 231:Core/Src/FusionAhrs.c ****                     .y = Q.y * Q.z + Q.w * Q.x,
 732              		.loc 1 231 39 view .LVU206
 733 0072 D0ED067A 		vldr.32	s15, [r0, #24]
 231:Core/Src/FusionAhrs.c ****                     .y = Q.y * Q.z + Q.w * Q.x,
 734              		.loc 1 231 45 view .LVU207
 735 0076 D0ED086A 		vldr.32	s13, [r0, #32]
 231:Core/Src/FusionAhrs.c ****                     .y = Q.y * Q.z + Q.w * Q.x,
 736              		.loc 1 231 42 view .LVU208
 737 007a 27EEA65A 		vmul.f32	s10, s15, s13
 231:Core/Src/FusionAhrs.c ****                     .y = Q.y * Q.z + Q.w * Q.x,
 738              		.loc 1 231 36 view .LVU209
 739 007e 75EEC55A 		vsub.f32	s11, s11, s10
 230:Core/Src/FusionAhrs.c ****                     .x = Q.x * Q.z - Q.w * Q.y,
 740              		.loc 1 230 32 view .LVU210
 741 0082 CDED045A 		vstr.32	s11, [sp, #16]
 232:Core/Src/FusionAhrs.c ****                     .z = Q.w * Q.w - 0.5f + Q.z * Q.z,
 742              		.loc 1 232 30 view .LVU211
 743 0086 67EE266A 		vmul.f32	s13, s14, s13
 232:Core/Src/FusionAhrs.c ****                     .z = Q.w * Q.w - 0.5f + Q.z * Q.z,
 744              		.loc 1 232 42 view .LVU212
 745 008a 26EE276A 		vmul.f32	s12, s12, s15
 232:Core/Src/FusionAhrs.c ****                     .z = Q.w * Q.w - 0.5f + Q.z * Q.z,
 746              		.loc 1 232 36 view .LVU213
 747 008e 76EE866A 		vadd.f32	s13, s13, s12
 230:Core/Src/FusionAhrs.c ****                     .x = Q.x * Q.z - Q.w * Q.y,
 748              		.loc 1 230 32 view .LVU214
 749 0092 CDED056A 		vstr.32	s13, [sp, #20]
 233:Core/Src/FusionAhrs.c ****             }}; // third column of transposed rotation matrix scaled by 0.5
 750              		.loc 1 233 30 view .LVU215
 751 0096 67EEA77A 		vmul.f32	s15, s15, s15
 233:Core/Src/FusionAhrs.c ****             }}; // third column of transposed rotation matrix scaled by 0.5
 752              		.loc 1 233 36 view .LVU216
 753 009a F6EE006A 		vmov.f32	s13, #5.0e-1
 754 009e 77EEE67A 		vsub.f32	s15, s15, s13
 233:Core/Src/FusionAhrs.c ****             }}; // third column of transposed rotation matrix scaled by 0.5
ARM GAS  /var/folders/w9/l2kswtfn3fs2kslkvv5vg9sh0000gn/T//ccLXrTqc.s 			page 27


 755              		.loc 1 233 49 view .LVU217
 756 00a2 27EE077A 		vmul.f32	s14, s14, s14
 233:Core/Src/FusionAhrs.c ****             }}; // third column of transposed rotation matrix scaled by 0.5
 757              		.loc 1 233 43 view .LVU218
 758 00a6 77EE877A 		vadd.f32	s15, s15, s14
 230:Core/Src/FusionAhrs.c ****                     .x = Q.x * Q.z - Q.w * Q.y,
 759              		.loc 1 230 32 view .LVU219
 760 00aa CDED067A 		vstr.32	s15, [sp, #24]
 235:Core/Src/FusionAhrs.c ****         }
 761              		.loc 1 235 13 is_stmt 1 view .LVU220
 235:Core/Src/FusionAhrs.c ****         }
 762              		.loc 1 235 20 is_stmt 0 view .LVU221
 763 00ae 04AB     		add	r3, sp, #16
 764 00b0 93E80700 		ldm	r3, {r0, r1, r2}
 765              	.LVL9:
 235:Core/Src/FusionAhrs.c ****         }
 766              		.loc 1 235 20 view .LVU222
 767 00b4 0AAB     		add	r3, sp, #40
 768 00b6 03E90700 		stmdb	r3, {r0, r1, r2}
 769              	.L23:
 235:Core/Src/FusionAhrs.c ****         }
 770              		.loc 1 235 20 view .LVU223
 771              	.LBE71:
 244:Core/Src/FusionAhrs.c ****         }
 245:Core/Src/FusionAhrs.c ****     }
 246:Core/Src/FusionAhrs.c ****     return FUSION_VECTOR_ZERO; // avoid compiler warning
 247:Core/Src/FusionAhrs.c **** #undef Q
 248:Core/Src/FusionAhrs.c **** }
 772              		.loc 1 248 1 view .LVU224
 773 00ba 9DED070A 		vldr.32	s0, [sp, #28]
 774 00be DDED080A 		vldr.32	s1, [sp, #32]
 775 00c2 9DED091A 		vldr.32	s2, [sp, #36]
 776 00c6 0AB0     		add	sp, sp, #40
 777              	.LCFI18:
 778              		.cfi_remember_state
 779              		.cfi_def_cfa_offset 0
 780              		@ sp needed
 781 00c8 7047     		bx	lr
 782              	.LVL10:
 783              	.L26:
 784              	.LCFI19:
 785              		.cfi_restore_state
 246:Core/Src/FusionAhrs.c **** #undef Q
 786              		.loc 1 246 5 is_stmt 1 view .LVU225
 246:Core/Src/FusionAhrs.c **** #undef Q
 787              		.loc 1 246 12 is_stmt 0 view .LVU226
 788 00ca 0023     		movs	r3, #0
 789 00cc 0793     		str	r3, [sp, #28]	@ float
 790 00ce 0893     		str	r3, [sp, #32]	@ float
 791 00d0 0993     		str	r3, [sp, #36]	@ float
 792 00d2 F2E7     		b	.L23
 793              		.cfi_endproc
 794              	.LFE26:
 796              		.section	.text.HalfMagnetic,"ax",%progbits
 797              		.align	1
 798              		.syntax unified
 799              		.thumb
ARM GAS  /var/folders/w9/l2kswtfn3fs2kslkvv5vg9sh0000gn/T//ccLXrTqc.s 			page 28


 800              		.thumb_func
 802              	HalfMagnetic:
 803              	.LVL11:
 804              	.LFB27:
 249:Core/Src/FusionAhrs.c **** 
 250:Core/Src/FusionAhrs.c **** /**
 251:Core/Src/FusionAhrs.c ****  * @brief Returns the direction of the magnetic field scaled by 0.5.
 252:Core/Src/FusionAhrs.c ****  * @param ahrs AHRS algorithm structure.
 253:Core/Src/FusionAhrs.c ****  * @return Direction of the magnetic field scaled by 0.5.
 254:Core/Src/FusionAhrs.c ****  */
 255:Core/Src/FusionAhrs.c **** static inline FusionVector HalfMagnetic(const FusionAhrs *const ahrs) {
 805              		.loc 1 255 71 is_stmt 1 view -0
 806              		.cfi_startproc
 807              		@ args = 0, pretend = 0, frame = 40
 808              		@ frame_needed = 0, uses_anonymous_args = 0
 809              		@ link register save eliminated.
 810              		.loc 1 255 71 is_stmt 0 view .LVU228
 811 0000 8AB0     		sub	sp, sp, #40
 812              	.LCFI20:
 813              		.cfi_def_cfa_offset 40
 256:Core/Src/FusionAhrs.c **** #define Q ahrs->quaternion.element
 257:Core/Src/FusionAhrs.c ****     switch (ahrs->settings.convention) {
 814              		.loc 1 257 5 is_stmt 1 view .LVU229
 815              		.loc 1 257 27 is_stmt 0 view .LVU230
 816 0002 0378     		ldrb	r3, [r0]	@ zero_extendqisi2
 817              		.loc 1 257 5 view .LVU231
 818 0004 012B     		cmp	r3, #1
 819 0006 36D0     		beq	.L28
 820 0008 022B     		cmp	r3, #2
 821 000a 61D0     		beq	.L29
 822 000c 002B     		cmp	r3, #0
 823 000e 40F08C80 		bne	.L30
 824              	.LBB72:
 258:Core/Src/FusionAhrs.c ****         case FusionConventionNwu: {
 259:Core/Src/FusionAhrs.c ****             const FusionVector halfMagnetic = {.axis = {
 825              		.loc 1 259 13 is_stmt 1 view .LVU232
 260:Core/Src/FusionAhrs.c ****                     .x = Q.x * Q.y + Q.w * Q.z,
 826              		.loc 1 260 27 is_stmt 0 view .LVU233
 827 0012 D0ED076A 		vldr.32	s13, [r0, #28]
 828              		.loc 1 260 33 view .LVU234
 829 0016 D0ED087A 		vldr.32	s15, [r0, #32]
 830              		.loc 1 260 30 view .LVU235
 831 001a 26EEA77A 		vmul.f32	s14, s13, s15
 832              		.loc 1 260 39 view .LVU236
 833 001e 90ED066A 		vldr.32	s12, [r0, #24]
 834              		.loc 1 260 45 view .LVU237
 835 0022 D0ED095A 		vldr.32	s11, [r0, #36]
 836              		.loc 1 260 42 view .LVU238
 837 0026 26EE255A 		vmul.f32	s10, s12, s11
 838              		.loc 1 260 36 view .LVU239
 839 002a 37EE057A 		vadd.f32	s14, s14, s10
 259:Core/Src/FusionAhrs.c ****                     .x = Q.x * Q.y + Q.w * Q.z,
 840              		.loc 1 259 32 view .LVU240
 841 002e 8DED047A 		vstr.32	s14, [sp, #16]
 261:Core/Src/FusionAhrs.c ****                     .y = Q.w * Q.w - 0.5f + Q.y * Q.y,
 842              		.loc 1 261 30 view .LVU241
 843 0032 26EE067A 		vmul.f32	s14, s12, s12
ARM GAS  /var/folders/w9/l2kswtfn3fs2kslkvv5vg9sh0000gn/T//ccLXrTqc.s 			page 29


 844              		.loc 1 261 36 view .LVU242
 845 0036 B6EE005A 		vmov.f32	s10, #5.0e-1
 846 003a 37EE457A 		vsub.f32	s14, s14, s10
 847              		.loc 1 261 49 view .LVU243
 848 003e 27EEA75A 		vmul.f32	s10, s15, s15
 849              		.loc 1 261 43 view .LVU244
 850 0042 37EE057A 		vadd.f32	s14, s14, s10
 259:Core/Src/FusionAhrs.c ****                     .x = Q.x * Q.y + Q.w * Q.z,
 851              		.loc 1 259 32 view .LVU245
 852 0046 8DED057A 		vstr.32	s14, [sp, #20]
 262:Core/Src/FusionAhrs.c ****                     .z = Q.y * Q.z - Q.w * Q.x,
 853              		.loc 1 262 30 view .LVU246
 854 004a 67EEA57A 		vmul.f32	s15, s15, s11
 855              		.loc 1 262 42 view .LVU247
 856 004e 66EE866A 		vmul.f32	s13, s13, s12
 857              		.loc 1 262 36 view .LVU248
 858 0052 77EEE67A 		vsub.f32	s15, s15, s13
 259:Core/Src/FusionAhrs.c ****                     .x = Q.x * Q.y + Q.w * Q.z,
 859              		.loc 1 259 32 view .LVU249
 860 0056 CDED067A 		vstr.32	s15, [sp, #24]
 263:Core/Src/FusionAhrs.c ****             }}; // second column of transposed rotation matrix scaled by 0.5
 264:Core/Src/FusionAhrs.c ****             return halfMagnetic;
 861              		.loc 1 264 13 is_stmt 1 view .LVU250
 862              		.loc 1 264 20 is_stmt 0 view .LVU251
 863 005a 04AB     		add	r3, sp, #16
 864 005c 93E80700 		ldm	r3, {r0, r1, r2}
 865              	.LVL12:
 866              		.loc 1 264 20 view .LVU252
 867 0060 0AAB     		add	r3, sp, #40
 868 0062 03E90700 		stmdb	r3, {r0, r1, r2}
 869              	.L31:
 870              	.LBE72:
 265:Core/Src/FusionAhrs.c ****         }
 266:Core/Src/FusionAhrs.c ****         case FusionConventionEnu: {
 267:Core/Src/FusionAhrs.c ****             const FusionVector halfMagnetic = {.axis = {
 268:Core/Src/FusionAhrs.c ****                     .x = 0.5f - Q.w * Q.w - Q.x * Q.x,
 269:Core/Src/FusionAhrs.c ****                     .y = Q.w * Q.z - Q.x * Q.y,
 270:Core/Src/FusionAhrs.c ****                     .z = -1.0f * (Q.x * Q.z + Q.w * Q.y),
 271:Core/Src/FusionAhrs.c ****             }}; // first column of transposed rotation matrix scaled by -0.5
 272:Core/Src/FusionAhrs.c ****             return halfMagnetic;
 273:Core/Src/FusionAhrs.c ****         }
 274:Core/Src/FusionAhrs.c ****         case FusionConventionNed: {
 275:Core/Src/FusionAhrs.c ****             const FusionVector halfMagnetic = {.axis = {
 276:Core/Src/FusionAhrs.c ****                     .x = -1.0f * (Q.x * Q.y + Q.w * Q.z),
 277:Core/Src/FusionAhrs.c ****                     .y = 0.5f - Q.w * Q.w - Q.y * Q.y,
 278:Core/Src/FusionAhrs.c ****                     .z = Q.w * Q.x - Q.y * Q.z,
 279:Core/Src/FusionAhrs.c ****             }}; // second column of transposed rotation matrix scaled by -0.5
 280:Core/Src/FusionAhrs.c ****             return halfMagnetic;
 281:Core/Src/FusionAhrs.c ****         }
 282:Core/Src/FusionAhrs.c ****     }
 283:Core/Src/FusionAhrs.c ****     return FUSION_VECTOR_ZERO; // avoid compiler warning
 284:Core/Src/FusionAhrs.c **** #undef Q
 285:Core/Src/FusionAhrs.c **** }
 871              		.loc 1 285 1 view .LVU253
 872 0066 9DED070A 		vldr.32	s0, [sp, #28]
 873 006a DDED080A 		vldr.32	s1, [sp, #32]
 874 006e 9DED091A 		vldr.32	s2, [sp, #36]
ARM GAS  /var/folders/w9/l2kswtfn3fs2kslkvv5vg9sh0000gn/T//ccLXrTqc.s 			page 30


 875 0072 0AB0     		add	sp, sp, #40
 876              	.LCFI21:
 877              		.cfi_remember_state
 878              		.cfi_def_cfa_offset 0
 879              		@ sp needed
 880 0074 7047     		bx	lr
 881              	.LVL13:
 882              	.L28:
 883              	.LCFI22:
 884              		.cfi_restore_state
 885              	.LBB73:
 267:Core/Src/FusionAhrs.c ****                     .x = 0.5f - Q.w * Q.w - Q.x * Q.x,
 886              		.loc 1 267 13 is_stmt 1 view .LVU254
 268:Core/Src/FusionAhrs.c ****                     .y = Q.w * Q.z - Q.x * Q.y,
 887              		.loc 1 268 34 is_stmt 0 view .LVU255
 888 0076 90ED067A 		vldr.32	s14, [r0, #24]
 268:Core/Src/FusionAhrs.c ****                     .y = Q.w * Q.z - Q.x * Q.y,
 889              		.loc 1 268 37 view .LVU256
 890 007a 67EE077A 		vmul.f32	s15, s14, s14
 268:Core/Src/FusionAhrs.c ****                     .y = Q.w * Q.z - Q.x * Q.y,
 891              		.loc 1 268 31 view .LVU257
 892 007e F6EE006A 		vmov.f32	s13, #5.0e-1
 893 0082 76EEE76A 		vsub.f32	s13, s13, s15
 268:Core/Src/FusionAhrs.c ****                     .y = Q.w * Q.z - Q.x * Q.y,
 894              		.loc 1 268 46 view .LVU258
 895 0086 D0ED077A 		vldr.32	s15, [r0, #28]
 268:Core/Src/FusionAhrs.c ****                     .y = Q.w * Q.z - Q.x * Q.y,
 896              		.loc 1 268 49 view .LVU259
 897 008a 27EEA76A 		vmul.f32	s12, s15, s15
 268:Core/Src/FusionAhrs.c ****                     .y = Q.w * Q.z - Q.x * Q.y,
 898              		.loc 1 268 43 view .LVU260
 899 008e 76EEC66A 		vsub.f32	s13, s13, s12
 267:Core/Src/FusionAhrs.c ****                     .x = 0.5f - Q.w * Q.w - Q.x * Q.x,
 900              		.loc 1 267 32 view .LVU261
 901 0092 CDED046A 		vstr.32	s13, [sp, #16]
 269:Core/Src/FusionAhrs.c ****                     .z = -1.0f * (Q.x * Q.z + Q.w * Q.y),
 902              		.loc 1 269 33 view .LVU262
 903 0096 D0ED095A 		vldr.32	s11, [r0, #36]
 269:Core/Src/FusionAhrs.c ****                     .z = -1.0f * (Q.x * Q.z + Q.w * Q.y),
 904              		.loc 1 269 30 view .LVU263
 905 009a 67EE256A 		vmul.f32	s13, s14, s11
 269:Core/Src/FusionAhrs.c ****                     .z = -1.0f * (Q.x * Q.z + Q.w * Q.y),
 906              		.loc 1 269 45 view .LVU264
 907 009e 90ED086A 		vldr.32	s12, [r0, #32]
 269:Core/Src/FusionAhrs.c ****                     .z = -1.0f * (Q.x * Q.z + Q.w * Q.y),
 908              		.loc 1 269 42 view .LVU265
 909 00a2 27EE865A 		vmul.f32	s10, s15, s12
 269:Core/Src/FusionAhrs.c ****                     .z = -1.0f * (Q.x * Q.z + Q.w * Q.y),
 910              		.loc 1 269 36 view .LVU266
 911 00a6 76EEC56A 		vsub.f32	s13, s13, s10
 267:Core/Src/FusionAhrs.c ****                     .x = 0.5f - Q.w * Q.w - Q.x * Q.x,
 912              		.loc 1 267 32 view .LVU267
 913 00aa CDED056A 		vstr.32	s13, [sp, #20]
 270:Core/Src/FusionAhrs.c ****             }}; // first column of transposed rotation matrix scaled by -0.5
 914              		.loc 1 270 39 view .LVU268
 915 00ae 67EEA57A 		vmul.f32	s15, s15, s11
 270:Core/Src/FusionAhrs.c ****             }}; // first column of transposed rotation matrix scaled by -0.5
ARM GAS  /var/folders/w9/l2kswtfn3fs2kslkvv5vg9sh0000gn/T//ccLXrTqc.s 			page 31


 916              		.loc 1 270 51 view .LVU269
 917 00b2 27EE067A 		vmul.f32	s14, s14, s12
 270:Core/Src/FusionAhrs.c ****             }}; // first column of transposed rotation matrix scaled by -0.5
 918              		.loc 1 270 45 view .LVU270
 919 00b6 77EE877A 		vadd.f32	s15, s15, s14
 270:Core/Src/FusionAhrs.c ****             }}; // first column of transposed rotation matrix scaled by -0.5
 920              		.loc 1 270 32 view .LVU271
 921 00ba F1EE677A 		vneg.f32	s15, s15
 267:Core/Src/FusionAhrs.c ****                     .x = 0.5f - Q.w * Q.w - Q.x * Q.x,
 922              		.loc 1 267 32 view .LVU272
 923 00be CDED067A 		vstr.32	s15, [sp, #24]
 272:Core/Src/FusionAhrs.c ****         }
 924              		.loc 1 272 13 is_stmt 1 view .LVU273
 272:Core/Src/FusionAhrs.c ****         }
 925              		.loc 1 272 20 is_stmt 0 view .LVU274
 926 00c2 04AB     		add	r3, sp, #16
 927 00c4 93E80700 		ldm	r3, {r0, r1, r2}
 928              	.LVL14:
 272:Core/Src/FusionAhrs.c ****         }
 929              		.loc 1 272 20 view .LVU275
 930 00c8 0AAB     		add	r3, sp, #40
 931 00ca 03E90700 		stmdb	r3, {r0, r1, r2}
 932 00ce CAE7     		b	.L31
 933              	.LVL15:
 934              	.L29:
 272:Core/Src/FusionAhrs.c ****         }
 935              		.loc 1 272 20 view .LVU276
 936              	.LBE73:
 937              	.LBB74:
 275:Core/Src/FusionAhrs.c ****                     .x = -1.0f * (Q.x * Q.y + Q.w * Q.z),
 938              		.loc 1 275 13 is_stmt 1 view .LVU277
 276:Core/Src/FusionAhrs.c ****                     .y = 0.5f - Q.w * Q.w - Q.y * Q.y,
 939              		.loc 1 276 36 is_stmt 0 view .LVU278
 940 00d0 D0ED077A 		vldr.32	s15, [r0, #28]
 276:Core/Src/FusionAhrs.c ****                     .y = 0.5f - Q.w * Q.w - Q.y * Q.y,
 941              		.loc 1 276 42 view .LVU279
 942 00d4 90ED087A 		vldr.32	s14, [r0, #32]
 276:Core/Src/FusionAhrs.c ****                     .y = 0.5f - Q.w * Q.w - Q.y * Q.y,
 943              		.loc 1 276 39 view .LVU280
 944 00d8 67EE876A 		vmul.f32	s13, s15, s14
 276:Core/Src/FusionAhrs.c ****                     .y = 0.5f - Q.w * Q.w - Q.y * Q.y,
 945              		.loc 1 276 48 view .LVU281
 946 00dc 90ED066A 		vldr.32	s12, [r0, #24]
 276:Core/Src/FusionAhrs.c ****                     .y = 0.5f - Q.w * Q.w - Q.y * Q.y,
 947              		.loc 1 276 54 view .LVU282
 948 00e0 D0ED095A 		vldr.32	s11, [r0, #36]
 276:Core/Src/FusionAhrs.c ****                     .y = 0.5f - Q.w * Q.w - Q.y * Q.y,
 949              		.loc 1 276 51 view .LVU283
 950 00e4 26EE255A 		vmul.f32	s10, s12, s11
 276:Core/Src/FusionAhrs.c ****                     .y = 0.5f - Q.w * Q.w - Q.y * Q.y,
 951              		.loc 1 276 45 view .LVU284
 952 00e8 76EE856A 		vadd.f32	s13, s13, s10
 276:Core/Src/FusionAhrs.c ****                     .y = 0.5f - Q.w * Q.w - Q.y * Q.y,
 953              		.loc 1 276 32 view .LVU285
 954 00ec F1EE666A 		vneg.f32	s13, s13
 275:Core/Src/FusionAhrs.c ****                     .x = -1.0f * (Q.x * Q.y + Q.w * Q.z),
 955              		.loc 1 275 32 view .LVU286
ARM GAS  /var/folders/w9/l2kswtfn3fs2kslkvv5vg9sh0000gn/T//ccLXrTqc.s 			page 32


 956 00f0 CDED046A 		vstr.32	s13, [sp, #16]
 277:Core/Src/FusionAhrs.c ****                     .z = Q.w * Q.x - Q.y * Q.z,
 957              		.loc 1 277 37 view .LVU287
 958 00f4 26EE065A 		vmul.f32	s10, s12, s12
 277:Core/Src/FusionAhrs.c ****                     .z = Q.w * Q.x - Q.y * Q.z,
 959              		.loc 1 277 31 view .LVU288
 960 00f8 F6EE006A 		vmov.f32	s13, #5.0e-1
 961 00fc 76EEC56A 		vsub.f32	s13, s13, s10
 277:Core/Src/FusionAhrs.c ****                     .z = Q.w * Q.x - Q.y * Q.z,
 962              		.loc 1 277 49 view .LVU289
 963 0100 27EE075A 		vmul.f32	s10, s14, s14
 277:Core/Src/FusionAhrs.c ****                     .z = Q.w * Q.x - Q.y * Q.z,
 964              		.loc 1 277 43 view .LVU290
 965 0104 76EEC56A 		vsub.f32	s13, s13, s10
 275:Core/Src/FusionAhrs.c ****                     .x = -1.0f * (Q.x * Q.y + Q.w * Q.z),
 966              		.loc 1 275 32 view .LVU291
 967 0108 CDED056A 		vstr.32	s13, [sp, #20]
 278:Core/Src/FusionAhrs.c ****             }}; // second column of transposed rotation matrix scaled by -0.5
 968              		.loc 1 278 30 view .LVU292
 969 010c 67EE867A 		vmul.f32	s15, s15, s12
 278:Core/Src/FusionAhrs.c ****             }}; // second column of transposed rotation matrix scaled by -0.5
 970              		.loc 1 278 42 view .LVU293
 971 0110 27EE257A 		vmul.f32	s14, s14, s11
 278:Core/Src/FusionAhrs.c ****             }}; // second column of transposed rotation matrix scaled by -0.5
 972              		.loc 1 278 36 view .LVU294
 973 0114 77EEC77A 		vsub.f32	s15, s15, s14
 275:Core/Src/FusionAhrs.c ****                     .x = -1.0f * (Q.x * Q.y + Q.w * Q.z),
 974              		.loc 1 275 32 view .LVU295
 975 0118 CDED067A 		vstr.32	s15, [sp, #24]
 280:Core/Src/FusionAhrs.c ****         }
 976              		.loc 1 280 13 is_stmt 1 view .LVU296
 280:Core/Src/FusionAhrs.c ****         }
 977              		.loc 1 280 20 is_stmt 0 view .LVU297
 978 011c 04AB     		add	r3, sp, #16
 979 011e 93E80700 		ldm	r3, {r0, r1, r2}
 980              	.LVL16:
 280:Core/Src/FusionAhrs.c ****         }
 981              		.loc 1 280 20 view .LVU298
 982 0122 0AAB     		add	r3, sp, #40
 983 0124 03E90700 		stmdb	r3, {r0, r1, r2}
 984 0128 9DE7     		b	.L31
 985              	.LVL17:
 986              	.L30:
 280:Core/Src/FusionAhrs.c ****         }
 987              		.loc 1 280 20 view .LVU299
 988              	.LBE74:
 283:Core/Src/FusionAhrs.c **** #undef Q
 989              		.loc 1 283 5 is_stmt 1 view .LVU300
 283:Core/Src/FusionAhrs.c **** #undef Q
 990              		.loc 1 283 12 is_stmt 0 view .LVU301
 991 012a 0023     		movs	r3, #0
 992 012c 0793     		str	r3, [sp, #28]	@ float
 993 012e 0893     		str	r3, [sp, #32]	@ float
 994 0130 0993     		str	r3, [sp, #36]	@ float
 995 0132 98E7     		b	.L31
 996              		.cfi_endproc
 997              	.LFE27:
ARM GAS  /var/folders/w9/l2kswtfn3fs2kslkvv5vg9sh0000gn/T//ccLXrTqc.s 			page 33


 999              		.section	.text.Feedback,"ax",%progbits
 1000              		.align	1
 1001              		.syntax unified
 1002              		.thumb
 1003              		.thumb_func
 1005              	Feedback:
 1006              	.LFB28:
 286:Core/Src/FusionAhrs.c **** 
 287:Core/Src/FusionAhrs.c **** /**
 288:Core/Src/FusionAhrs.c ****  * @brief Returns the feedback.
 289:Core/Src/FusionAhrs.c ****  * @param sensor Sensor.
 290:Core/Src/FusionAhrs.c ****  * @param reference Reference.
 291:Core/Src/FusionAhrs.c ****  * @return Feedback.
 292:Core/Src/FusionAhrs.c ****  */
 293:Core/Src/FusionAhrs.c **** static inline FusionVector Feedback(const FusionVector sensor, const FusionVector reference) {
 1007              		.loc 1 293 94 is_stmt 1 view -0
 1008              		.cfi_startproc
 1009              		@ args = 0, pretend = 0, frame = 64
 1010              		@ frame_needed = 0, uses_anonymous_args = 0
 1011 0000 00B5     		push	{lr}
 1012              	.LCFI23:
 1013              		.cfi_def_cfa_offset 4
 1014              		.cfi_offset 14, -4
 1015 0002 91B0     		sub	sp, sp, #68
 1016              	.LCFI24:
 1017              		.cfi_def_cfa_offset 72
 1018 0004 8DED070A 		vstr.32	s0, [sp, #28]
 1019 0008 CDED080A 		vstr.32	s1, [sp, #32]
 1020 000c 8DED091A 		vstr.32	s2, [sp, #36]
 1021 0010 CDED041A 		vstr.32	s3, [sp, #16]
 1022 0014 8DED052A 		vstr.32	s4, [sp, #20]
 1023 0018 CDED062A 		vstr.32	s5, [sp, #24]
 294:Core/Src/FusionAhrs.c ****     if (FusionVectorDotProduct(sensor, reference) < 0.0f) { // if error is >90 degrees
 1024              		.loc 1 294 5 view .LVU303
 1025              		.loc 1 294 9 is_stmt 0 view .LVU304
 1026 001c FFF7FEFF 		bl	FusionVectorDotProduct
 1027              	.LVL18:
 1028              		.loc 1 294 8 discriminator 1 view .LVU305
 1029 0020 B5EEC00A 		vcmpe.f32	s0, #0
 1030 0024 F1EE10FA 		vmrs	APSR_nzcv, FPSCR
 1031 0028 1BD4     		bmi	.L40
 295:Core/Src/FusionAhrs.c ****         return FusionVectorNormalise(FusionVectorCrossProduct(sensor, reference));
 296:Core/Src/FusionAhrs.c ****     }
 297:Core/Src/FusionAhrs.c ****     return FusionVectorCrossProduct(sensor, reference);
 1032              		.loc 1 297 5 is_stmt 1 view .LVU306
 1033              		.loc 1 297 12 is_stmt 0 view .LVU307
 1034 002a DDED041A 		vldr.32	s3, [sp, #16]
 1035 002e 9DED052A 		vldr.32	s4, [sp, #20]
 1036 0032 DDED062A 		vldr.32	s5, [sp, #24]
 1037 0036 9DED070A 		vldr.32	s0, [sp, #28]
 1038 003a DDED080A 		vldr.32	s1, [sp, #32]
 1039 003e 9DED091A 		vldr.32	s2, [sp, #36]
 1040 0042 FFF7FEFF 		bl	FusionVectorCrossProduct
 1041              	.LVL19:
 1042 0046 8DED0A0A 		vstr.32	s0, [sp, #40]
 1043 004a CDED0B0A 		vstr.32	s1, [sp, #44]
 1044 004e 8DED0C1A 		vstr.32	s2, [sp, #48]
ARM GAS  /var/folders/w9/l2kswtfn3fs2kslkvv5vg9sh0000gn/T//ccLXrTqc.s 			page 34


 1045              	.L36:
 298:Core/Src/FusionAhrs.c **** }
 1046              		.loc 1 298 1 view .LVU308
 1047 0052 9DED0A0A 		vldr.32	s0, [sp, #40]
 1048 0056 DDED0B0A 		vldr.32	s1, [sp, #44]
 1049 005a 9DED0C1A 		vldr.32	s2, [sp, #48]
 1050 005e 11B0     		add	sp, sp, #68
 1051              	.LCFI25:
 1052              		.cfi_remember_state
 1053              		.cfi_def_cfa_offset 4
 1054              		@ sp needed
 1055 0060 00BD     		pop	{pc}
 1056              	.L40:
 1057              	.LCFI26:
 1058              		.cfi_restore_state
 295:Core/Src/FusionAhrs.c ****         return FusionVectorNormalise(FusionVectorCrossProduct(sensor, reference));
 1059              		.loc 1 295 9 is_stmt 1 view .LVU309
 295:Core/Src/FusionAhrs.c ****         return FusionVectorNormalise(FusionVectorCrossProduct(sensor, reference));
 1060              		.loc 1 295 38 is_stmt 0 view .LVU310
 1061 0062 DDED041A 		vldr.32	s3, [sp, #16]
 1062 0066 9DED052A 		vldr.32	s4, [sp, #20]
 1063 006a DDED062A 		vldr.32	s5, [sp, #24]
 1064 006e 9DED070A 		vldr.32	s0, [sp, #28]
 1065 0072 DDED080A 		vldr.32	s1, [sp, #32]
 1066 0076 9DED091A 		vldr.32	s2, [sp, #36]
 1067 007a FFF7FEFF 		bl	FusionVectorCrossProduct
 1068              	.LVL20:
 1069 007e 8DED0D0A 		vstr.32	s0, [sp, #52]
 1070 0082 CDED0E0A 		vstr.32	s1, [sp, #56]
 1071 0086 8DED0F1A 		vstr.32	s2, [sp, #60]
 295:Core/Src/FusionAhrs.c ****         return FusionVectorNormalise(FusionVectorCrossProduct(sensor, reference));
 1072              		.loc 1 295 16 discriminator 1 view .LVU311
 1073 008a FFF7FEFF 		bl	FusionVectorNormalise
 1074              	.LVL21:
 1075 008e 8DED0A0A 		vstr.32	s0, [sp, #40]
 1076 0092 CDED0B0A 		vstr.32	s1, [sp, #44]
 1077 0096 8DED0C1A 		vstr.32	s2, [sp, #48]
 295:Core/Src/FusionAhrs.c ****         return FusionVectorNormalise(FusionVectorCrossProduct(sensor, reference));
 1078              		.loc 1 295 16 view .LVU312
 1079 009a DAE7     		b	.L36
 1080              		.cfi_endproc
 1081              	.LFE28:
 1083              		.section	.text.FusionVectorMagnitude,"ax",%progbits
 1084              		.align	1
 1085              		.syntax unified
 1086              		.thumb
 1087              		.thumb_func
 1089              	FusionVectorMagnitude:
 1090              	.LFB13:
 307:Core/Inc/FusionMath.h ****     return sqrtf(FusionVectorMagnitudeSquared(vector));
 1091              		.loc 2 307 70 is_stmt 1 view -0
 1092              		.cfi_startproc
 1093              		@ args = 0, pretend = 0, frame = 16
 1094              		@ frame_needed = 0, uses_anonymous_args = 0
 1095 0000 00B5     		push	{lr}
 1096              	.LCFI27:
 1097              		.cfi_def_cfa_offset 4
ARM GAS  /var/folders/w9/l2kswtfn3fs2kslkvv5vg9sh0000gn/T//ccLXrTqc.s 			page 35


 1098              		.cfi_offset 14, -4
 1099 0002 85B0     		sub	sp, sp, #20
 1100              	.LCFI28:
 1101              		.cfi_def_cfa_offset 24
 1102 0004 8DED010A 		vstr.32	s0, [sp, #4]
 1103 0008 CDED020A 		vstr.32	s1, [sp, #8]
 1104 000c 8DED031A 		vstr.32	s2, [sp, #12]
 308:Core/Inc/FusionMath.h **** }
 1105              		.loc 2 308 5 view .LVU314
 308:Core/Inc/FusionMath.h **** }
 1106              		.loc 2 308 12 is_stmt 0 view .LVU315
 1107 0010 FFF7FEFF 		bl	FusionVectorMagnitudeSquared
 1108              	.LVL22:
 308:Core/Inc/FusionMath.h **** }
 1109              		.loc 2 308 12 discriminator 1 view .LVU316
 1110 0014 FFF7FEFF 		bl	sqrtf
 1111              	.LVL23:
 309:Core/Inc/FusionMath.h **** 
 1112              		.loc 2 309 1 view .LVU317
 1113 0018 05B0     		add	sp, sp, #20
 1114              	.LCFI29:
 1115              		.cfi_def_cfa_offset 4
 1116              		@ sp needed
 1117 001a 00BD     		pop	{pc}
 1118              		.cfi_endproc
 1119              	.LFE13:
 1121              		.section	.text.FusionAsin,"ax",%progbits
 1122              		.align	1
 1123              		.syntax unified
 1124              		.thumb
 1125              		.thumb_func
 1127              	FusionAsin:
 1128              	.LVL24:
 1129              	.LFB2:
 148:Core/Inc/FusionMath.h ****     if (value <= -1.0f) {
 1130              		.loc 2 148 51 is_stmt 1 view -0
 1131              		.cfi_startproc
 1132              		@ args = 0, pretend = 0, frame = 0
 1133              		@ frame_needed = 0, uses_anonymous_args = 0
 149:Core/Inc/FusionMath.h ****         return (float) M_PI / -2.0f;
 1134              		.loc 2 149 5 view .LVU319
 149:Core/Inc/FusionMath.h ****         return (float) M_PI / -2.0f;
 1135              		.loc 2 149 8 is_stmt 0 view .LVU320
 1136 0000 FFEE007A 		vmov.f32	s15, #-1.0e+0
 1137 0004 B4EEE70A 		vcmpe.f32	s0, s15
 1138 0008 F1EE10FA 		vmrs	APSR_nzcv, FPSCR
 1139 000c 0DD9     		bls	.L45
 152:Core/Inc/FusionMath.h ****         return (float) M_PI / 2.0f;
 1140              		.loc 2 152 5 is_stmt 1 view .LVU321
 152:Core/Inc/FusionMath.h ****         return (float) M_PI / 2.0f;
 1141              		.loc 2 152 8 is_stmt 0 view .LVU322
 1142 000e F7EE007A 		vmov.f32	s15, #1.0e+0
 1143 0012 B4EEE70A 		vcmpe.f32	s0, s15
 1144 0016 F1EE10FA 		vmrs	APSR_nzcv, FPSCR
 1145 001a 02DB     		blt	.L51
 153:Core/Inc/FusionMath.h ****     }
 1146              		.loc 2 153 29 view .LVU323
ARM GAS  /var/folders/w9/l2kswtfn3fs2kslkvv5vg9sh0000gn/T//ccLXrTqc.s 			page 36


 1147 001c 9FED040A 		vldr.32	s0, .L52
 1148              	.LVL25:
 156:Core/Inc/FusionMath.h **** 
 1149              		.loc 2 156 1 view .LVU324
 1150 0020 7047     		bx	lr
 1151              	.LVL26:
 1152              	.L51:
 148:Core/Inc/FusionMath.h ****     if (value <= -1.0f) {
 1153              		.loc 2 148 51 view .LVU325
 1154 0022 08B5     		push	{r3, lr}
 1155              	.LCFI30:
 1156              		.cfi_def_cfa_offset 8
 1157              		.cfi_offset 3, -8
 1158              		.cfi_offset 14, -4
 155:Core/Inc/FusionMath.h **** }
 1159              		.loc 2 155 5 is_stmt 1 view .LVU326
 155:Core/Inc/FusionMath.h **** }
 1160              		.loc 2 155 12 is_stmt 0 view .LVU327
 1161 0024 FFF7FEFF 		bl	asinf
 1162              	.LVL27:
 156:Core/Inc/FusionMath.h **** 
 1163              		.loc 2 156 1 view .LVU328
 1164 0028 08BD     		pop	{r3, pc}
 1165              	.LVL28:
 1166              	.L45:
 1167              	.LCFI31:
 1168              		.cfi_def_cfa_offset 0
 1169              		.cfi_restore 3
 1170              		.cfi_restore 14
 150:Core/Inc/FusionMath.h ****     }
 1171              		.loc 2 150 29 view .LVU329
 1172 002a 9FED020A 		vldr.32	s0, .L52+4
 1173              	.LVL29:
 150:Core/Inc/FusionMath.h ****     }
 1174              		.loc 2 150 29 view .LVU330
 1175 002e 7047     		bx	lr
 1176              	.L53:
 1177              		.align	2
 1178              	.L52:
 1179 0030 DB0FC93F 		.word	1070141403
 1180 0034 DB0FC9BF 		.word	-1077342245
 1181              		.cfi_endproc
 1182              	.LFE2:
 1184              		.section	.text.FusionAhrsReset,"ax",%progbits
 1185              		.align	1
 1186              		.global	FusionAhrsReset
 1187              		.syntax unified
 1188              		.thumb
 1189              		.thumb_func
 1191              	FusionAhrsReset:
 1192              	.LVL30:
 1193              	.LFB23:
  64:Core/Src/FusionAhrs.c ****     ahrs->quaternion = FUSION_IDENTITY_QUATERNION;
 1194              		.loc 1 64 46 is_stmt 1 view -0
 1195              		.cfi_startproc
 1196              		@ args = 0, pretend = 0, frame = 0
 1197              		@ frame_needed = 0, uses_anonymous_args = 0
ARM GAS  /var/folders/w9/l2kswtfn3fs2kslkvv5vg9sh0000gn/T//ccLXrTqc.s 			page 37


 1198              		@ link register save eliminated.
  65:Core/Src/FusionAhrs.c ****     ahrs->accelerometer = FUSION_VECTOR_ZERO;
 1199              		.loc 1 65 5 view .LVU332
  65:Core/Src/FusionAhrs.c ****     ahrs->accelerometer = FUSION_VECTOR_ZERO;
 1200              		.loc 1 65 22 is_stmt 0 view .LVU333
 1201 0000 4FF07E53 		mov	r3, #1065353216
 1202 0004 8361     		str	r3, [r0, #24]	@ float
 1203 0006 0023     		movs	r3, #0
 1204 0008 C361     		str	r3, [r0, #28]	@ float
 1205 000a 0362     		str	r3, [r0, #32]	@ float
 1206 000c 4362     		str	r3, [r0, #36]	@ float
  66:Core/Src/FusionAhrs.c ****     ahrs->initialising = true;
 1207              		.loc 1 66 5 is_stmt 1 view .LVU334
  66:Core/Src/FusionAhrs.c ****     ahrs->initialising = true;
 1208              		.loc 1 66 25 is_stmt 0 view .LVU335
 1209 000e 8362     		str	r3, [r0, #40]	@ float
 1210 0010 C362     		str	r3, [r0, #44]	@ float
 1211 0012 0363     		str	r3, [r0, #48]	@ float
  67:Core/Src/FusionAhrs.c ****     ahrs->rampedGain = INITIAL_GAIN;
 1212              		.loc 1 67 5 is_stmt 1 view .LVU336
  67:Core/Src/FusionAhrs.c ****     ahrs->rampedGain = INITIAL_GAIN;
 1213              		.loc 1 67 24 is_stmt 0 view .LVU337
 1214 0014 0122     		movs	r2, #1
 1215 0016 80F83420 		strb	r2, [r0, #52]
  68:Core/Src/FusionAhrs.c ****     ahrs->angularRateRecovery = false;
 1216              		.loc 1 68 5 is_stmt 1 view .LVU338
  68:Core/Src/FusionAhrs.c ****     ahrs->angularRateRecovery = false;
 1217              		.loc 1 68 22 is_stmt 0 view .LVU339
 1218 001a 0A4A     		ldr	r2, .L55
 1219 001c 8263     		str	r2, [r0, #56]	@ float
  69:Core/Src/FusionAhrs.c ****     ahrs->halfAccelerometerFeedback = FUSION_VECTOR_ZERO;
 1220              		.loc 1 69 5 is_stmt 1 view .LVU340
  69:Core/Src/FusionAhrs.c ****     ahrs->halfAccelerometerFeedback = FUSION_VECTOR_ZERO;
 1221              		.loc 1 69 31 is_stmt 0 view .LVU341
 1222 001e 0022     		movs	r2, #0
 1223 0020 80F84020 		strb	r2, [r0, #64]
  70:Core/Src/FusionAhrs.c ****     ahrs->halfMagnetometerFeedback = FUSION_VECTOR_ZERO;
 1224              		.loc 1 70 5 is_stmt 1 view .LVU342
  70:Core/Src/FusionAhrs.c ****     ahrs->halfMagnetometerFeedback = FUSION_VECTOR_ZERO;
 1225              		.loc 1 70 37 is_stmt 0 view .LVU343
 1226 0024 4364     		str	r3, [r0, #68]	@ float
 1227 0026 8364     		str	r3, [r0, #72]	@ float
 1228 0028 C364     		str	r3, [r0, #76]	@ float
  71:Core/Src/FusionAhrs.c ****     ahrs->accelerometerIgnored = false;
 1229              		.loc 1 71 5 is_stmt 1 view .LVU344
  71:Core/Src/FusionAhrs.c ****     ahrs->accelerometerIgnored = false;
 1230              		.loc 1 71 36 is_stmt 0 view .LVU345
 1231 002a 0365     		str	r3, [r0, #80]	@ float
 1232 002c 4365     		str	r3, [r0, #84]	@ float
 1233 002e 8365     		str	r3, [r0, #88]	@ float
  72:Core/Src/FusionAhrs.c ****     ahrs->accelerationRecoveryTrigger = 0;
 1234              		.loc 1 72 5 is_stmt 1 view .LVU346
  72:Core/Src/FusionAhrs.c ****     ahrs->accelerationRecoveryTrigger = 0;
 1235              		.loc 1 72 32 is_stmt 0 view .LVU347
 1236 0030 80F85C20 		strb	r2, [r0, #92]
  73:Core/Src/FusionAhrs.c ****     ahrs->accelerationRecoveryTimeout = ahrs->settings.recoveryTriggerPeriod;
 1237              		.loc 1 73 5 is_stmt 1 view .LVU348
ARM GAS  /var/folders/w9/l2kswtfn3fs2kslkvv5vg9sh0000gn/T//ccLXrTqc.s 			page 38


  73:Core/Src/FusionAhrs.c ****     ahrs->accelerationRecoveryTimeout = ahrs->settings.recoveryTriggerPeriod;
 1238              		.loc 1 73 39 is_stmt 0 view .LVU349
 1239 0034 0266     		str	r2, [r0, #96]
  74:Core/Src/FusionAhrs.c ****     ahrs->magnetometerIgnored = false;
 1240              		.loc 1 74 5 is_stmt 1 view .LVU350
  74:Core/Src/FusionAhrs.c ****     ahrs->magnetometerIgnored = false;
 1241              		.loc 1 74 55 is_stmt 0 view .LVU351
 1242 0036 4369     		ldr	r3, [r0, #20]
  74:Core/Src/FusionAhrs.c ****     ahrs->magnetometerIgnored = false;
 1243              		.loc 1 74 39 view .LVU352
 1244 0038 4366     		str	r3, [r0, #100]
  75:Core/Src/FusionAhrs.c ****     ahrs->magneticRecoveryTrigger = 0;
 1245              		.loc 1 75 5 is_stmt 1 view .LVU353
  75:Core/Src/FusionAhrs.c ****     ahrs->magneticRecoveryTrigger = 0;
 1246              		.loc 1 75 31 is_stmt 0 view .LVU354
 1247 003a 80F86820 		strb	r2, [r0, #104]
  76:Core/Src/FusionAhrs.c ****     ahrs->magneticRecoveryTimeout = ahrs->settings.recoveryTriggerPeriod;
 1248              		.loc 1 76 5 is_stmt 1 view .LVU355
  76:Core/Src/FusionAhrs.c ****     ahrs->magneticRecoveryTimeout = ahrs->settings.recoveryTriggerPeriod;
 1249              		.loc 1 76 35 is_stmt 0 view .LVU356
 1250 003e C266     		str	r2, [r0, #108]
  77:Core/Src/FusionAhrs.c **** }
 1251              		.loc 1 77 5 is_stmt 1 view .LVU357
  77:Core/Src/FusionAhrs.c **** }
 1252              		.loc 1 77 35 is_stmt 0 view .LVU358
 1253 0040 0367     		str	r3, [r0, #112]
  78:Core/Src/FusionAhrs.c **** 
 1254              		.loc 1 78 1 view .LVU359
 1255 0042 7047     		bx	lr
 1256              	.L56:
 1257              		.align	2
 1258              	.L55:
 1259 0044 00002041 		.word	1092616192
 1260              		.cfi_endproc
 1261              	.LFE23:
 1263              		.section	.text.FusionAhrsSetSettings,"ax",%progbits
 1264              		.align	1
 1265              		.global	FusionAhrsSetSettings
 1266              		.syntax unified
 1267              		.thumb
 1268              		.thumb_func
 1270              	FusionAhrsSetSettings:
 1271              	.LVL31:
 1272              	.LFB24:
  85:Core/Src/FusionAhrs.c ****     ahrs->settings.convention = settings->convention;
 1273              		.loc 1 85 94 is_stmt 1 view -0
 1274              		.cfi_startproc
 1275              		@ args = 0, pretend = 0, frame = 0
 1276              		@ frame_needed = 0, uses_anonymous_args = 0
  85:Core/Src/FusionAhrs.c ****     ahrs->settings.convention = settings->convention;
 1277              		.loc 1 85 94 is_stmt 0 view .LVU361
 1278 0000 38B5     		push	{r3, r4, r5, lr}
 1279              	.LCFI32:
 1280              		.cfi_def_cfa_offset 16
 1281              		.cfi_offset 3, -16
 1282              		.cfi_offset 4, -12
 1283              		.cfi_offset 5, -8
ARM GAS  /var/folders/w9/l2kswtfn3fs2kslkvv5vg9sh0000gn/T//ccLXrTqc.s 			page 39


 1284              		.cfi_offset 14, -4
 1285 0002 2DED028B 		vpush.64	{d8}
 1286              	.LCFI33:
 1287              		.cfi_def_cfa_offset 24
 1288              		.cfi_offset 80, -24
 1289              		.cfi_offset 81, -20
 1290 0006 0446     		mov	r4, r0
 1291 0008 0D46     		mov	r5, r1
  86:Core/Src/FusionAhrs.c ****     ahrs->settings.gain = settings->gain;
 1292              		.loc 1 86 5 is_stmt 1 view .LVU362
  86:Core/Src/FusionAhrs.c ****     ahrs->settings.gain = settings->gain;
 1293              		.loc 1 86 41 is_stmt 0 view .LVU363
 1294 000a 0B78     		ldrb	r3, [r1]	@ zero_extendqisi2
  86:Core/Src/FusionAhrs.c ****     ahrs->settings.gain = settings->gain;
 1295              		.loc 1 86 31 view .LVU364
 1296 000c 0370     		strb	r3, [r0]
  87:Core/Src/FusionAhrs.c ****     ahrs->settings.gyroscopeRange = settings->gyroscopeRange == 0.0f ? FLT_MAX : 0.98f * settings->
 1297              		.loc 1 87 5 is_stmt 1 view .LVU365
  87:Core/Src/FusionAhrs.c ****     ahrs->settings.gyroscopeRange = settings->gyroscopeRange == 0.0f ? FLT_MAX : 0.98f * settings->
 1298              		.loc 1 87 35 is_stmt 0 view .LVU366
 1299 000e 91ED018A 		vldr.32	s16, [r1, #4]
  87:Core/Src/FusionAhrs.c ****     ahrs->settings.gyroscopeRange = settings->gyroscopeRange == 0.0f ? FLT_MAX : 0.98f * settings->
 1300              		.loc 1 87 25 view .LVU367
 1301 0012 80ED018A 		vstr.32	s16, [r0, #4]
  88:Core/Src/FusionAhrs.c ****     ahrs->settings.accelerationRejection = settings->accelerationRejection == 0.0f ? FLT_MAX : powf
 1302              		.loc 1 88 5 is_stmt 1 view .LVU368
  88:Core/Src/FusionAhrs.c ****     ahrs->settings.accelerationRejection = settings->accelerationRejection == 0.0f ? FLT_MAX : powf
 1303              		.loc 1 88 45 is_stmt 0 view .LVU369
 1304 0016 D1ED027A 		vldr.32	s15, [r1, #8]
  88:Core/Src/FusionAhrs.c ****     ahrs->settings.accelerationRejection = settings->accelerationRejection == 0.0f ? FLT_MAX : powf
 1305              		.loc 1 88 80 view .LVU370
 1306 001a F5EE407A 		vcmp.f32	s15, #0
 1307 001e F1EE10FA 		vmrs	APSR_nzcv, FPSCR
 1308 0022 3DD0     		beq	.L64
  88:Core/Src/FusionAhrs.c ****     ahrs->settings.accelerationRejection = settings->accelerationRejection == 0.0f ? FLT_MAX : powf
 1309              		.loc 1 88 80 discriminator 1 view .LVU371
 1310 0024 9FED2F7A 		vldr.32	s14, .L70
 1311 0028 67EE877A 		vmul.f32	s15, s15, s14
 1312              	.L58:
  88:Core/Src/FusionAhrs.c ****     ahrs->settings.accelerationRejection = settings->accelerationRejection == 0.0f ? FLT_MAX : powf
 1313              		.loc 1 88 35 discriminator 4 view .LVU372
 1314 002c C4ED027A 		vstr.32	s15, [r4, #8]
  89:Core/Src/FusionAhrs.c ****     ahrs->settings.magneticRejection = settings->magneticRejection == 0.0f ? FLT_MAX : powf(0.5f * 
 1315              		.loc 1 89 5 is_stmt 1 view .LVU373
  89:Core/Src/FusionAhrs.c ****     ahrs->settings.magneticRejection = settings->magneticRejection == 0.0f ? FLT_MAX : powf(0.5f * 
 1316              		.loc 1 89 52 is_stmt 0 view .LVU374
 1317 0030 D5ED037A 		vldr.32	s15, [r5, #12]
  89:Core/Src/FusionAhrs.c ****     ahrs->settings.magneticRejection = settings->magneticRejection == 0.0f ? FLT_MAX : powf(0.5f * 
 1318              		.loc 1 89 94 view .LVU375
 1319 0034 F5EE407A 		vcmp.f32	s15, #0
 1320 0038 F1EE10FA 		vmrs	APSR_nzcv, FPSCR
 1321 003c 33D1     		bne	.L68
  89:Core/Src/FusionAhrs.c ****     ahrs->settings.magneticRejection = settings->magneticRejection == 0.0f ? FLT_MAX : powf(0.5f * 
 1322              		.loc 1 89 94 discriminator 2 view .LVU376
 1323 003e 9FED2A0A 		vldr.32	s0, .L70+4
 1324              	.LVL32:
 1325              	.L59:
ARM GAS  /var/folders/w9/l2kswtfn3fs2kslkvv5vg9sh0000gn/T//ccLXrTqc.s 			page 40


  89:Core/Src/FusionAhrs.c ****     ahrs->settings.magneticRejection = settings->magneticRejection == 0.0f ? FLT_MAX : powf(0.5f * 
 1326              		.loc 1 89 42 discriminator 4 view .LVU377
 1327 0042 84ED030A 		vstr.32	s0, [r4, #12]
  90:Core/Src/FusionAhrs.c ****     ahrs->settings.recoveryTriggerPeriod = settings->recoveryTriggerPeriod;
 1328              		.loc 1 90 5 is_stmt 1 view .LVU378
  90:Core/Src/FusionAhrs.c ****     ahrs->settings.recoveryTriggerPeriod = settings->recoveryTriggerPeriod;
 1329              		.loc 1 90 48 is_stmt 0 view .LVU379
 1330 0046 D5ED047A 		vldr.32	s15, [r5, #16]
  90:Core/Src/FusionAhrs.c ****     ahrs->settings.recoveryTriggerPeriod = settings->recoveryTriggerPeriod;
 1331              		.loc 1 90 86 view .LVU380
 1332 004a F5EE407A 		vcmp.f32	s15, #0
 1333 004e F1EE10FA 		vmrs	APSR_nzcv, FPSCR
 1334 0052 37D1     		bne	.L69
  90:Core/Src/FusionAhrs.c ****     ahrs->settings.recoveryTriggerPeriod = settings->recoveryTriggerPeriod;
 1335              		.loc 1 90 86 discriminator 2 view .LVU381
 1336 0054 9FED240A 		vldr.32	s0, .L70+4
 1337              	.L60:
  90:Core/Src/FusionAhrs.c ****     ahrs->settings.recoveryTriggerPeriod = settings->recoveryTriggerPeriod;
 1338              		.loc 1 90 38 discriminator 4 view .LVU382
 1339 0058 84ED040A 		vstr.32	s0, [r4, #16]
  91:Core/Src/FusionAhrs.c ****     ahrs->accelerationRecoveryTimeout = ahrs->settings.recoveryTriggerPeriod;
 1340              		.loc 1 91 5 is_stmt 1 view .LVU383
  91:Core/Src/FusionAhrs.c ****     ahrs->accelerationRecoveryTimeout = ahrs->settings.recoveryTriggerPeriod;
 1341              		.loc 1 91 52 is_stmt 0 view .LVU384
 1342 005c 6B69     		ldr	r3, [r5, #20]
  91:Core/Src/FusionAhrs.c ****     ahrs->accelerationRecoveryTimeout = ahrs->settings.recoveryTriggerPeriod;
 1343              		.loc 1 91 42 view .LVU385
 1344 005e 6361     		str	r3, [r4, #20]
  92:Core/Src/FusionAhrs.c ****     ahrs->magneticRecoveryTimeout = ahrs->settings.recoveryTriggerPeriod;
 1345              		.loc 1 92 5 is_stmt 1 view .LVU386
  92:Core/Src/FusionAhrs.c ****     ahrs->magneticRecoveryTimeout = ahrs->settings.recoveryTriggerPeriod;
 1346              		.loc 1 92 39 is_stmt 0 view .LVU387
 1347 0060 6366     		str	r3, [r4, #100]
  93:Core/Src/FusionAhrs.c ****     if ((settings->gain == 0.0f) || (settings->recoveryTriggerPeriod == 0)) { // disable accelerati
 1348              		.loc 1 93 5 is_stmt 1 view .LVU388
  93:Core/Src/FusionAhrs.c ****     if ((settings->gain == 0.0f) || (settings->recoveryTriggerPeriod == 0)) { // disable accelerati
 1349              		.loc 1 93 35 is_stmt 0 view .LVU389
 1350 0062 2367     		str	r3, [r4, #112]
  94:Core/Src/FusionAhrs.c ****         ahrs->settings.accelerationRejection = FLT_MAX;
 1351              		.loc 1 94 5 is_stmt 1 view .LVU390
  94:Core/Src/FusionAhrs.c ****         ahrs->settings.accelerationRejection = FLT_MAX;
 1352              		.loc 1 94 18 is_stmt 0 view .LVU391
 1353 0064 D5ED017A 		vldr.32	s15, [r5, #4]
  94:Core/Src/FusionAhrs.c ****         ahrs->settings.accelerationRejection = FLT_MAX;
 1354              		.loc 1 94 8 view .LVU392
 1355 0068 F5EE407A 		vcmp.f32	s15, #0
 1356 006c F1EE10FA 		vmrs	APSR_nzcv, FPSCR
 1357 0070 01D0     		beq	.L61
  94:Core/Src/FusionAhrs.c ****         ahrs->settings.accelerationRejection = FLT_MAX;
 1358              		.loc 1 94 46 discriminator 1 view .LVU393
 1359 0072 6B69     		ldr	r3, [r5, #20]
  94:Core/Src/FusionAhrs.c ****         ahrs->settings.accelerationRejection = FLT_MAX;
 1360              		.loc 1 94 34 discriminator 1 view .LVU394
 1361 0074 13B9     		cbnz	r3, .L62
 1362              	.L61:
  95:Core/Src/FusionAhrs.c ****         ahrs->settings.magneticRejection = FLT_MAX;
 1363              		.loc 1 95 9 is_stmt 1 view .LVU395
ARM GAS  /var/folders/w9/l2kswtfn3fs2kslkvv5vg9sh0000gn/T//ccLXrTqc.s 			page 41


  95:Core/Src/FusionAhrs.c ****         ahrs->settings.magneticRejection = FLT_MAX;
 1364              		.loc 1 95 46 is_stmt 0 view .LVU396
 1365 0076 1D4B     		ldr	r3, .L70+8
 1366 0078 E360     		str	r3, [r4, #12]	@ float
  96:Core/Src/FusionAhrs.c ****     }
 1367              		.loc 1 96 9 is_stmt 1 view .LVU397
  96:Core/Src/FusionAhrs.c ****     }
 1368              		.loc 1 96 42 is_stmt 0 view .LVU398
 1369 007a 2361     		str	r3, [r4, #16]	@ float
 1370              	.L62:
  98:Core/Src/FusionAhrs.c ****         ahrs->rampedGain = ahrs->settings.gain;
 1371              		.loc 1 98 5 is_stmt 1 view .LVU399
  98:Core/Src/FusionAhrs.c ****         ahrs->rampedGain = ahrs->settings.gain;
 1372              		.loc 1 98 13 is_stmt 0 view .LVU400
 1373 007c 94F83430 		ldrb	r3, [r4, #52]	@ zero_extendqisi2
  98:Core/Src/FusionAhrs.c ****         ahrs->rampedGain = ahrs->settings.gain;
 1374              		.loc 1 98 8 view .LVU401
 1375 0080 0BB9     		cbnz	r3, .L63
  99:Core/Src/FusionAhrs.c ****     }
 1376              		.loc 1 99 9 is_stmt 1 view .LVU402
  99:Core/Src/FusionAhrs.c ****     }
 1377              		.loc 1 99 26 is_stmt 0 view .LVU403
 1378 0082 84ED0E8A 		vstr.32	s16, [r4, #56]
 1379              	.L63:
 101:Core/Src/FusionAhrs.c **** }
 1380              		.loc 1 101 5 is_stmt 1 view .LVU404
 101:Core/Src/FusionAhrs.c **** }
 1381              		.loc 1 101 42 is_stmt 0 view .LVU405
 1382 0086 F2EE047A 		vmov.f32	s15, #1.0e+1
 1383 008a 77EEC87A 		vsub.f32	s15, s15, s16
 101:Core/Src/FusionAhrs.c **** }
 1384              		.loc 1 101 65 view .LVU406
 1385 008e F0EE086A 		vmov.f32	s13, #3.0e+0
 1386 0092 87EEA67A 		vdiv.f32	s14, s15, s13
 101:Core/Src/FusionAhrs.c **** }
 1387              		.loc 1 101 26 view .LVU407
 1388 0096 84ED0F7A 		vstr.32	s14, [r4, #60]
 102:Core/Src/FusionAhrs.c **** 
 1389              		.loc 1 102 1 view .LVU408
 1390 009a BDEC028B 		vldm	sp!, {d8}
 1391              	.LCFI34:
 1392              		.cfi_remember_state
 1393              		.cfi_restore 80
 1394              		.cfi_restore 81
 1395              		.cfi_def_cfa_offset 16
 1396 009e 38BD     		pop	{r3, r4, r5, pc}
 1397              	.LVL33:
 1398              	.L64:
 1399              	.LCFI35:
 1400              		.cfi_restore_state
  88:Core/Src/FusionAhrs.c ****     ahrs->settings.accelerationRejection = settings->accelerationRejection == 0.0f ? FLT_MAX : powf
 1401              		.loc 1 88 80 discriminator 2 view .LVU409
 1402 00a0 DFED117A 		vldr.32	s15, .L70+4
 1403 00a4 C2E7     		b	.L58
 1404              	.L68:
 1405              	.LVL34:
 1406              	.LBB75:
ARM GAS  /var/folders/w9/l2kswtfn3fs2kslkvv5vg9sh0000gn/T//ccLXrTqc.s 			page 42


 1407              	.LBI75:
 127:Core/Inc/FusionMath.h ****     return degrees * ((float) M_PI / 180.0f);
 1408              		.loc 2 127 21 is_stmt 1 view .LVU410
 1409              	.LBB76:
 128:Core/Inc/FusionMath.h **** }
 1410              		.loc 2 128 5 view .LVU411
 128:Core/Inc/FusionMath.h **** }
 1411              		.loc 2 128 5 is_stmt 0 view .LVU412
 1412              	.LBE76:
 1413              	.LBE75:
  89:Core/Src/FusionAhrs.c ****     ahrs->settings.magneticRejection = settings->magneticRejection == 0.0f ? FLT_MAX : powf(0.5f * 
 1414              		.loc 1 89 108 discriminator 1 view .LVU413
 1415 00a6 9FED120A 		vldr.32	s0, .L70+12
 1416 00aa 27EE800A 		vmul.f32	s0, s15, s0
 1417 00ae FFF7FEFF 		bl	sinf
 1418              	.LVL35:
  89:Core/Src/FusionAhrs.c ****     ahrs->settings.magneticRejection = settings->magneticRejection == 0.0f ? FLT_MAX : powf(0.5f * 
 1419              		.loc 1 89 96 discriminator 2 view .LVU414
 1420 00b2 F0EE000A 		vmov.f32	s1, #2.0e+0
 1421 00b6 F6EE007A 		vmov.f32	s15, #5.0e-1
 1422 00ba 20EE270A 		vmul.f32	s0, s0, s15
 1423 00be FFF7FEFF 		bl	powf
 1424              	.LVL36:
 1425 00c2 BEE7     		b	.L59
 1426              	.L69:
 1427              	.LVL37:
 1428              	.LBB77:
 1429              	.LBI77:
 127:Core/Inc/FusionMath.h ****     return degrees * ((float) M_PI / 180.0f);
 1430              		.loc 2 127 21 is_stmt 1 view .LVU415
 1431              	.LBB78:
 128:Core/Inc/FusionMath.h **** }
 1432              		.loc 2 128 5 view .LVU416
 128:Core/Inc/FusionMath.h **** }
 1433              		.loc 2 128 5 is_stmt 0 view .LVU417
 1434              	.LBE78:
 1435              	.LBE77:
  90:Core/Src/FusionAhrs.c ****     ahrs->settings.recoveryTriggerPeriod = settings->recoveryTriggerPeriod;
 1436              		.loc 1 90 100 discriminator 1 view .LVU418
 1437 00c4 9FED0A0A 		vldr.32	s0, .L70+12
 1438 00c8 27EE800A 		vmul.f32	s0, s15, s0
 1439 00cc FFF7FEFF 		bl	sinf
 1440              	.LVL38:
  90:Core/Src/FusionAhrs.c ****     ahrs->settings.recoveryTriggerPeriod = settings->recoveryTriggerPeriod;
 1441              		.loc 1 90 88 discriminator 2 view .LVU419
 1442 00d0 F0EE000A 		vmov.f32	s1, #2.0e+0
 1443 00d4 F6EE007A 		vmov.f32	s15, #5.0e-1
 1444 00d8 20EE270A 		vmul.f32	s0, s0, s15
 1445 00dc FFF7FEFF 		bl	powf
 1446              	.LVL39:
 1447 00e0 BAE7     		b	.L60
 1448              	.L71:
 1449 00e2 00BF     		.align	2
 1450              	.L70:
 1451 00e4 48E17A3F 		.word	1065017672
 1452 00e8 FFFF7F7F 		.word	2139095039
 1453 00ec FFFF7F7F 		.word	2139095039
ARM GAS  /var/folders/w9/l2kswtfn3fs2kslkvv5vg9sh0000gn/T//ccLXrTqc.s 			page 43


 1454 00f0 35FA8E3C 		.word	1016003125
 1455              		.cfi_endproc
 1456              	.LFE24:
 1458              		.section	.text.FusionAhrsInitialise,"ax",%progbits
 1459              		.align	1
 1460              		.global	FusionAhrsInitialise
 1461              		.syntax unified
 1462              		.thumb
 1463              		.thumb_func
 1465              	FusionAhrsInitialise:
 1466              	.LVL40:
 1467              	.LFB22:
  46:Core/Src/FusionAhrs.c ****     const FusionAhrsSettings settings = {
 1468              		.loc 1 46 51 is_stmt 1 view -0
 1469              		.cfi_startproc
 1470              		@ args = 0, pretend = 0, frame = 24
 1471              		@ frame_needed = 0, uses_anonymous_args = 0
  46:Core/Src/FusionAhrs.c ****     const FusionAhrsSettings settings = {
 1472              		.loc 1 46 51 is_stmt 0 view .LVU421
 1473 0000 30B5     		push	{r4, r5, lr}
 1474              	.LCFI36:
 1475              		.cfi_def_cfa_offset 12
 1476              		.cfi_offset 4, -12
 1477              		.cfi_offset 5, -8
 1478              		.cfi_offset 14, -4
 1479 0002 87B0     		sub	sp, sp, #28
 1480              	.LCFI37:
 1481              		.cfi_def_cfa_offset 40
 1482 0004 0546     		mov	r5, r0
  47:Core/Src/FusionAhrs.c ****             .convention = FusionConventionNwu,
 1483              		.loc 1 47 5 is_stmt 1 view .LVU422
  47:Core/Src/FusionAhrs.c ****             .convention = FusionConventionNwu,
 1484              		.loc 1 47 30 is_stmt 0 view .LVU423
 1485 0006 EC46     		mov	ip, sp
 1486 0008 084C     		ldr	r4, .L74
 1487 000a 0FCC     		ldmia	r4!, {r0, r1, r2, r3}
 1488              	.LVL41:
  47:Core/Src/FusionAhrs.c ****             .convention = FusionConventionNwu,
 1489              		.loc 1 47 30 view .LVU424
 1490 000c ACE80F00 		stmia	ip!, {r0, r1, r2, r3}
 1491 0010 94E80300 		ldm	r4, {r0, r1}
 1492 0014 8CE80300 		stm	ip, {r0, r1}
  55:Core/Src/FusionAhrs.c ****     FusionAhrsReset(ahrs);
 1493              		.loc 1 55 5 is_stmt 1 view .LVU425
 1494 0018 6946     		mov	r1, sp
 1495 001a 2846     		mov	r0, r5
 1496 001c FFF7FEFF 		bl	FusionAhrsSetSettings
 1497              	.LVL42:
  56:Core/Src/FusionAhrs.c **** }
 1498              		.loc 1 56 5 view .LVU426
 1499 0020 2846     		mov	r0, r5
 1500 0022 FFF7FEFF 		bl	FusionAhrsReset
 1501              	.LVL43:
  57:Core/Src/FusionAhrs.c **** 
 1502              		.loc 1 57 1 is_stmt 0 view .LVU427
 1503 0026 07B0     		add	sp, sp, #28
 1504              	.LCFI38:
ARM GAS  /var/folders/w9/l2kswtfn3fs2kslkvv5vg9sh0000gn/T//ccLXrTqc.s 			page 44


 1505              		.cfi_def_cfa_offset 12
 1506              		@ sp needed
 1507 0028 30BD     		pop	{r4, r5, pc}
 1508              	.LVL44:
 1509              	.L75:
  57:Core/Src/FusionAhrs.c **** 
 1510              		.loc 1 57 1 view .LVU428
 1511 002a 00BF     		.align	2
 1512              	.L74:
 1513 002c 00000000 		.word	.LANCHOR0
 1514              		.cfi_endproc
 1515              	.LFE22:
 1517              		.section	.text.FusionAhrsUpdate,"ax",%progbits
 1518              		.align	1
 1519              		.global	FusionAhrsUpdate
 1520              		.syntax unified
 1521              		.thumb
 1522              		.thumb_func
 1524              	FusionAhrsUpdate:
 1525              	.LVL45:
 1526              	.LFB25:
 113:Core/Src/FusionAhrs.c **** #define Q ahrs->quaternion.element
 1527              		.loc 1 113 167 is_stmt 1 view -0
 1528              		.cfi_startproc
 1529              		@ args = 0, pretend = 0, frame = 312
 1530              		@ frame_needed = 0, uses_anonymous_args = 0
 113:Core/Src/FusionAhrs.c **** #define Q ahrs->quaternion.element
 1531              		.loc 1 113 167 is_stmt 0 view .LVU430
 1532 0000 70B5     		push	{r4, r5, r6, lr}
 1533              	.LCFI39:
 1534              		.cfi_def_cfa_offset 16
 1535              		.cfi_offset 4, -16
 1536              		.cfi_offset 5, -12
 1537              		.cfi_offset 6, -8
 1538              		.cfi_offset 14, -4
 1539 0002 2DED068B 		vpush.64	{d8, d9, d10}
 1540              	.LCFI40:
 1541              		.cfi_def_cfa_offset 40
 1542              		.cfi_offset 80, -40
 1543              		.cfi_offset 81, -36
 1544              		.cfi_offset 82, -32
 1545              		.cfi_offset 83, -28
 1546              		.cfi_offset 84, -24
 1547              		.cfi_offset 85, -20
 1548 0006 CEB0     		sub	sp, sp, #312
 1549              	.LCFI41:
 1550              		.cfi_def_cfa_offset 352
 1551 0008 0446     		mov	r4, r0
 1552 000a B0EE408A 		vmov.f32	s16, s0
 1553 000e 04AB     		add	r3, sp, #16
 1554 0010 F0EE648A 		vmov.f32	s17, s9
 1555 0014 8DED070A 		vstr.32	s0, [sp, #28]
 1556 0018 CDED080A 		vstr.32	s1, [sp, #32]
 1557 001c 8DED091A 		vstr.32	s2, [sp, #36]
 1558 0020 CDED041A 		vstr.32	s3, [sp, #16]
 1559 0024 8DED052A 		vstr.32	s4, [sp, #20]
 1560 0028 CDED062A 		vstr.32	s5, [sp, #24]
ARM GAS  /var/folders/w9/l2kswtfn3fs2kslkvv5vg9sh0000gn/T//ccLXrTqc.s 			page 45


 1561 002c 8DED013A 		vstr.32	s6, [sp, #4]
 1562 0030 CDED023A 		vstr.32	s7, [sp, #8]
 1563 0034 8DED034A 		vstr.32	s8, [sp, #12]
 117:Core/Src/FusionAhrs.c **** 
 1564              		.loc 1 117 5 is_stmt 1 view .LVU431
 117:Core/Src/FusionAhrs.c **** 
 1565              		.loc 1 117 25 is_stmt 0 view .LVU432
 1566 0038 00F12805 		add	r5, r0, #40
 1567 003c 93E80700 		ldm	r3, {r0, r1, r2}
 1568              	.LVL46:
 117:Core/Src/FusionAhrs.c **** 
 1569              		.loc 1 117 25 view .LVU433
 1570 0040 85E80700 		stm	r5, {r0, r1, r2}
 120:Core/Src/FusionAhrs.c ****         const FusionQuaternion quaternion = ahrs->quaternion;
 1571              		.loc 1 120 5 is_stmt 1 view .LVU434
 120:Core/Src/FusionAhrs.c ****         const FusionQuaternion quaternion = ahrs->quaternion;
 1572              		.loc 1 120 10 is_stmt 0 view .LVU435
 1573 0044 B0EEC07A 		vabs.f32	s14, s0
 120:Core/Src/FusionAhrs.c ****         const FusionQuaternion quaternion = ahrs->quaternion;
 1574              		.loc 1 120 49 view .LVU436
 1575 0048 D4ED027A 		vldr.32	s15, [r4, #8]
 120:Core/Src/FusionAhrs.c ****         const FusionQuaternion quaternion = ahrs->quaternion;
 1576              		.loc 1 120 8 view .LVU437
 1577 004c B4EEE77A 		vcmpe.f32	s14, s15
 1578 0050 F1EE10FA 		vmrs	APSR_nzcv, FPSCR
 1579 0054 0DDC     		bgt	.L77
 120:Core/Src/FusionAhrs.c ****         const FusionQuaternion quaternion = ahrs->quaternion;
 1580              		.loc 1 120 70 discriminator 1 view .LVU438
 1581 0056 B0EEE07A 		vabs.f32	s14, s1
 120:Core/Src/FusionAhrs.c ****         const FusionQuaternion quaternion = ahrs->quaternion;
 1582              		.loc 1 120 66 discriminator 1 view .LVU439
 1583 005a F4EEC77A 		vcmpe.f32	s15, s14
 1584 005e F1EE10FA 		vmrs	APSR_nzcv, FPSCR
 1585 0062 06D4     		bmi	.L77
 120:Core/Src/FusionAhrs.c ****         const FusionQuaternion quaternion = ahrs->quaternion;
 1586              		.loc 1 120 130 discriminator 2 view .LVU440
 1587 0064 B0EEC17A 		vabs.f32	s14, s2
 120:Core/Src/FusionAhrs.c ****         const FusionQuaternion quaternion = ahrs->quaternion;
 1588              		.loc 1 120 126 discriminator 2 view .LVU441
 1589 0068 F4EEC77A 		vcmpe.f32	s15, s14
 1590 006c F1EE10FA 		vmrs	APSR_nzcv, FPSCR
 1591 0070 10D5     		bpl	.L78
 1592              	.L77:
 1593              	.LBB79:
 121:Core/Src/FusionAhrs.c ****         FusionAhrsReset(ahrs);
 1594              		.loc 1 121 9 is_stmt 1 view .LVU442
 121:Core/Src/FusionAhrs.c ****         FusionAhrsReset(ahrs);
 1595              		.loc 1 121 32 is_stmt 0 view .LVU443
 1596 0072 0EAE     		add	r6, sp, #56
 1597 0074 04F11805 		add	r5, r4, #24
 1598 0078 95E80F00 		ldm	r5, {r0, r1, r2, r3}
 1599 007c 86E80F00 		stm	r6, {r0, r1, r2, r3}
 122:Core/Src/FusionAhrs.c ****         ahrs->quaternion = quaternion;
 1600              		.loc 1 122 9 is_stmt 1 view .LVU444
 1601 0080 2046     		mov	r0, r4
 1602 0082 FFF7FEFF 		bl	FusionAhrsReset
 1603              	.LVL47:
ARM GAS  /var/folders/w9/l2kswtfn3fs2kslkvv5vg9sh0000gn/T//ccLXrTqc.s 			page 46


 123:Core/Src/FusionAhrs.c ****         ahrs->angularRateRecovery = true;
 1604              		.loc 1 123 9 view .LVU445
 123:Core/Src/FusionAhrs.c ****         ahrs->angularRateRecovery = true;
 1605              		.loc 1 123 26 is_stmt 0 view .LVU446
 1606 0086 96E80F00 		ldm	r6, {r0, r1, r2, r3}
 1607 008a 85E80F00 		stm	r5, {r0, r1, r2, r3}
 124:Core/Src/FusionAhrs.c ****     }
 1608              		.loc 1 124 9 is_stmt 1 view .LVU447
 124:Core/Src/FusionAhrs.c ****     }
 1609              		.loc 1 124 35 is_stmt 0 view .LVU448
 1610 008e 0123     		movs	r3, #1
 1611 0090 84F84030 		strb	r3, [r4, #64]
 1612              	.L78:
 124:Core/Src/FusionAhrs.c ****     }
 1613              		.loc 1 124 35 view .LVU449
 1614              	.LBE79:
 128:Core/Src/FusionAhrs.c ****         ahrs->rampedGain -= ahrs->rampedGainStep * deltaTime;
 1615              		.loc 1 128 5 is_stmt 1 view .LVU450
 128:Core/Src/FusionAhrs.c ****         ahrs->rampedGain -= ahrs->rampedGainStep * deltaTime;
 1616              		.loc 1 128 13 is_stmt 0 view .LVU451
 1617 0094 94F83430 		ldrb	r3, [r4, #52]	@ zero_extendqisi2
 128:Core/Src/FusionAhrs.c ****         ahrs->rampedGain -= ahrs->rampedGainStep * deltaTime;
 1618              		.loc 1 128 8 view .LVU452
 1619 0098 E3B1     		cbz	r3, .L80
 129:Core/Src/FusionAhrs.c ****         if ((ahrs->rampedGain < ahrs->settings.gain) || (ahrs->settings.gain == 0.0f)) {
 1620              		.loc 1 129 9 is_stmt 1 view .LVU453
 129:Core/Src/FusionAhrs.c ****         if ((ahrs->rampedGain < ahrs->settings.gain) || (ahrs->settings.gain == 0.0f)) {
 1621              		.loc 1 129 13 is_stmt 0 view .LVU454
 1622 009a D4ED0E7A 		vldr.32	s15, [r4, #56]
 129:Core/Src/FusionAhrs.c ****         if ((ahrs->rampedGain < ahrs->settings.gain) || (ahrs->settings.gain == 0.0f)) {
 1623              		.loc 1 129 33 view .LVU455
 1624 009e 94ED0F7A 		vldr.32	s14, [r4, #60]
 129:Core/Src/FusionAhrs.c ****         if ((ahrs->rampedGain < ahrs->settings.gain) || (ahrs->settings.gain == 0.0f)) {
 1625              		.loc 1 129 50 view .LVU456
 1626 00a2 27EE287A 		vmul.f32	s14, s14, s17
 129:Core/Src/FusionAhrs.c ****         if ((ahrs->rampedGain < ahrs->settings.gain) || (ahrs->settings.gain == 0.0f)) {
 1627              		.loc 1 129 26 view .LVU457
 1628 00a6 77EEC77A 		vsub.f32	s15, s15, s14
 1629 00aa C4ED0E7A 		vstr.32	s15, [r4, #56]
 130:Core/Src/FusionAhrs.c ****             ahrs->rampedGain = ahrs->settings.gain;
 1630              		.loc 1 130 9 is_stmt 1 view .LVU458
 130:Core/Src/FusionAhrs.c ****             ahrs->rampedGain = ahrs->settings.gain;
 1631              		.loc 1 130 47 is_stmt 0 view .LVU459
 1632 00ae 94ED017A 		vldr.32	s14, [r4, #4]
 130:Core/Src/FusionAhrs.c ****             ahrs->rampedGain = ahrs->settings.gain;
 1633              		.loc 1 130 12 view .LVU460
 1634 00b2 F4EEC77A 		vcmpe.f32	s15, s14
 1635 00b6 F1EE10FA 		vmrs	APSR_nzcv, FPSCR
 1636 00ba 04D4     		bmi	.L81
 130:Core/Src/FusionAhrs.c ****             ahrs->rampedGain = ahrs->settings.gain;
 1637              		.loc 1 130 54 discriminator 1 view .LVU461
 1638 00bc B5EE407A 		vcmp.f32	s14, #0
 1639 00c0 F1EE10FA 		vmrs	APSR_nzcv, FPSCR
 1640 00c4 06D1     		bne	.L80
 1641              	.L81:
 131:Core/Src/FusionAhrs.c ****             ahrs->initialising = false;
 1642              		.loc 1 131 13 is_stmt 1 view .LVU462
ARM GAS  /var/folders/w9/l2kswtfn3fs2kslkvv5vg9sh0000gn/T//ccLXrTqc.s 			page 47


 131:Core/Src/FusionAhrs.c ****             ahrs->initialising = false;
 1643              		.loc 1 131 30 is_stmt 0 view .LVU463
 1644 00c6 84ED0E7A 		vstr.32	s14, [r4, #56]
 132:Core/Src/FusionAhrs.c ****             ahrs->angularRateRecovery = false;
 1645              		.loc 1 132 13 is_stmt 1 view .LVU464
 132:Core/Src/FusionAhrs.c ****             ahrs->angularRateRecovery = false;
 1646              		.loc 1 132 32 is_stmt 0 view .LVU465
 1647 00ca 0023     		movs	r3, #0
 1648 00cc 84F83430 		strb	r3, [r4, #52]
 133:Core/Src/FusionAhrs.c ****         }
 1649              		.loc 1 133 13 is_stmt 1 view .LVU466
 133:Core/Src/FusionAhrs.c ****         }
 1650              		.loc 1 133 39 is_stmt 0 view .LVU467
 1651 00d0 84F84030 		strb	r3, [r4, #64]
 1652              	.L80:
 138:Core/Src/FusionAhrs.c **** 		
 1653              		.loc 1 138 5 is_stmt 1 view .LVU468
 138:Core/Src/FusionAhrs.c **** 		
 1654              		.loc 1 138 38 is_stmt 0 view .LVU469
 1655 00d4 2046     		mov	r0, r4
 1656 00d6 FFF7FEFF 		bl	HalfGravity
 1657              	.LVL48:
 1658 00da 8DED1E0A 		vstr.32	s0, [sp, #120]
 1659 00de CDED1F0A 		vstr.32	s1, [sp, #124]
 1660 00e2 8DED201A 		vstr.32	s2, [sp, #128]
 141:Core/Src/FusionAhrs.c ****     ahrs->accelerometerIgnored = true;
 1661              		.loc 1 141 5 is_stmt 1 view .LVU470
 141:Core/Src/FusionAhrs.c ****     ahrs->accelerometerIgnored = true;
 1662              		.loc 1 141 18 is_stmt 0 view .LVU471
 1663 00e6 0023     		movs	r3, #0
 1664 00e8 1B93     		str	r3, [sp, #108]	@ float
 1665 00ea 1C93     		str	r3, [sp, #112]	@ float
 1666 00ec 1D93     		str	r3, [sp, #116]	@ float
 142:Core/Src/FusionAhrs.c ****     if (FusionVectorIsZero(accelerometer) == false) {
 1667              		.loc 1 142 5 is_stmt 1 view .LVU472
 142:Core/Src/FusionAhrs.c ****     if (FusionVectorIsZero(accelerometer) == false) {
 1668              		.loc 1 142 32 is_stmt 0 view .LVU473
 1669 00ee 0123     		movs	r3, #1
 1670 00f0 84F85C30 		strb	r3, [r4, #92]
 143:Core/Src/FusionAhrs.c **** 
 1671              		.loc 1 143 5 is_stmt 1 view .LVU474
 1672              	.LBB80:
 1673              	.LBI80:
 191:Core/Inc/FusionMath.h ****     return (vector.axis.x == 0.0f) && (vector.axis.y == 0.0f) && (vector.axis.z == 0.0f);
 1674              		.loc 2 191 20 view .LVU475
 1675              	.LBB81:
 192:Core/Inc/FusionMath.h **** }
 1676              		.loc 2 192 5 view .LVU476
 192:Core/Inc/FusionMath.h **** }
 1677              		.loc 2 192 24 is_stmt 0 view .LVU477
 1678 00f4 04AB     		add	r3, sp, #16
 1679 00f6 DDED047A 		vldr.32	s15, [sp, #16]
 192:Core/Inc/FusionMath.h **** }
 1680              		.loc 2 192 63 view .LVU478
 1681 00fa F5EE407A 		vcmp.f32	s15, #0
 1682 00fe F1EE10FA 		vmrs	APSR_nzcv, FPSCR
 1683 0102 0DD1     		bne	.L82
ARM GAS  /var/folders/w9/l2kswtfn3fs2kslkvv5vg9sh0000gn/T//ccLXrTqc.s 			page 48


 192:Core/Inc/FusionMath.h **** }
 1684              		.loc 2 192 51 discriminator 1 view .LVU479
 1685 0104 D3ED017A 		vldr.32	s15, [r3, #4]
 192:Core/Inc/FusionMath.h **** }
 1686              		.loc 2 192 36 discriminator 1 view .LVU480
 1687 0108 F5EE407A 		vcmp.f32	s15, #0
 1688 010c F1EE10FA 		vmrs	APSR_nzcv, FPSCR
 1689 0110 06D1     		bne	.L82
 192:Core/Inc/FusionMath.h **** }
 1690              		.loc 2 192 78 discriminator 3 view .LVU481
 1691 0112 D3ED027A 		vldr.32	s15, [r3, #8]
 192:Core/Inc/FusionMath.h **** }
 1692              		.loc 2 192 63 discriminator 3 view .LVU482
 1693 0116 F5EE407A 		vcmp.f32	s15, #0
 1694 011a F1EE10FA 		vmrs	APSR_nzcv, FPSCR
 1695 011e 48D0     		beq	.L83
 1696              	.L82:
 1697              	.LBE81:
 1698              	.LBE80:
 146:Core/Src/FusionAhrs.c **** 
 1699              		.loc 1 146 9 is_stmt 1 view .LVU483
 146:Core/Src/FusionAhrs.c **** 
 1700              		.loc 1 146 52 is_stmt 0 view .LVU484
 1701 0120 9DED040A 		vldr.32	s0, [sp, #16]
 1702 0124 DDED050A 		vldr.32	s1, [sp, #20]
 1703 0128 9DED061A 		vldr.32	s2, [sp, #24]
 1704 012c FFF7FEFF 		bl	FusionVectorNormalise
 1705              	.LVL49:
 1706 0130 8DED210A 		vstr.32	s0, [sp, #132]
 1707 0134 CDED220A 		vstr.32	s1, [sp, #136]
 1708 0138 8DED231A 		vstr.32	s2, [sp, #140]
 146:Core/Src/FusionAhrs.c **** 
 1709              		.loc 1 146 43 discriminator 1 view .LVU485
 1710 013c DDED1E1A 		vldr.32	s3, [sp, #120]
 1711 0140 9DED1F2A 		vldr.32	s4, [sp, #124]
 1712 0144 DDED202A 		vldr.32	s5, [sp, #128]
 1713 0148 FFF7FEFF 		bl	Feedback
 1714              	.LVL50:
 1715 014c 84ED110A 		vstr.32	s0, [r4, #68]
 1716 0150 C4ED120A 		vstr.32	s1, [r4, #72]
 1717 0154 84ED131A 		vstr.32	s2, [r4, #76]
 149:Core/Src/FusionAhrs.c ****             ahrs->accelerometerIgnored = false;
 1718              		.loc 1 149 9 is_stmt 1 view .LVU486
 149:Core/Src/FusionAhrs.c ****             ahrs->accelerometerIgnored = false;
 1719              		.loc 1 149 18 is_stmt 0 view .LVU487
 1720 0158 94F83430 		ldrb	r3, [r4, #52]	@ zero_extendqisi2
 149:Core/Src/FusionAhrs.c ****             ahrs->accelerometerIgnored = false;
 1721              		.loc 1 149 12 view .LVU488
 1722 015c 4BB9     		cbnz	r3, .L84
 149:Core/Src/FusionAhrs.c ****             ahrs->accelerometerIgnored = false;
 1723              		.loc 1 149 47 discriminator 1 view .LVU489
 1724 015e FFF7FEFF 		bl	FusionVectorMagnitudeSquared
 1725              	.LVL51:
 149:Core/Src/FusionAhrs.c ****             ahrs->accelerometerIgnored = false;
 1726              		.loc 1 149 126 discriminator 1 view .LVU490
 1727 0162 D4ED037A 		vldr.32	s15, [r4, #12]
 149:Core/Src/FusionAhrs.c ****             ahrs->accelerometerIgnored = false;
ARM GAS  /var/folders/w9/l2kswtfn3fs2kslkvv5vg9sh0000gn/T//ccLXrTqc.s 			page 49


 1728              		.loc 1 149 42 discriminator 1 view .LVU491
 1729 0166 F4EEC07A 		vcmpe.f32	s15, s0
 1730 016a F1EE10FA 		vmrs	APSR_nzcv, FPSCR
 1731 016e C0F27581 		blt	.L103
 1732              	.L84:
 150:Core/Src/FusionAhrs.c ****             ahrs->accelerationRecoveryTrigger -= 9;
 1733              		.loc 1 150 13 is_stmt 1 view .LVU492
 150:Core/Src/FusionAhrs.c ****             ahrs->accelerationRecoveryTrigger -= 9;
 1734              		.loc 1 150 40 is_stmt 0 view .LVU493
 1735 0172 0023     		movs	r3, #0
 1736 0174 84F85C30 		strb	r3, [r4, #92]
 151:Core/Src/FusionAhrs.c ****         } else {
 1737              		.loc 1 151 13 is_stmt 1 view .LVU494
 151:Core/Src/FusionAhrs.c ****         } else {
 1738              		.loc 1 151 17 is_stmt 0 view .LVU495
 1739 0178 236E     		ldr	r3, [r4, #96]
 151:Core/Src/FusionAhrs.c ****         } else {
 1740              		.loc 1 151 47 view .LVU496
 1741 017a 093B     		subs	r3, r3, #9
 1742 017c 2366     		str	r3, [r4, #96]
 1743              	.L87:
 157:Core/Src/FusionAhrs.c ****             ahrs->accelerationRecoveryTimeout = 0;
 1744              		.loc 1 157 9 is_stmt 1 view .LVU497
 157:Core/Src/FusionAhrs.c ****             ahrs->accelerationRecoveryTimeout = 0;
 1745              		.loc 1 157 17 is_stmt 0 view .LVU498
 1746 017e 236E     		ldr	r3, [r4, #96]
 157:Core/Src/FusionAhrs.c ****             ahrs->accelerationRecoveryTimeout = 0;
 1747              		.loc 1 157 53 view .LVU499
 1748 0180 626E     		ldr	r2, [r4, #100]
 157:Core/Src/FusionAhrs.c ****             ahrs->accelerationRecoveryTimeout = 0;
 1749              		.loc 1 157 12 view .LVU500
 1750 0182 9342     		cmp	r3, r2
 1751 0184 40F36E81 		ble	.L88
 158:Core/Src/FusionAhrs.c ****             ahrs->accelerometerIgnored = false;
 1752              		.loc 1 158 13 is_stmt 1 view .LVU501
 158:Core/Src/FusionAhrs.c ****             ahrs->accelerometerIgnored = false;
 1753              		.loc 1 158 47 is_stmt 0 view .LVU502
 1754 0188 0022     		movs	r2, #0
 1755 018a 6266     		str	r2, [r4, #100]
 159:Core/Src/FusionAhrs.c ****         } else {
 1756              		.loc 1 159 13 is_stmt 1 view .LVU503
 159:Core/Src/FusionAhrs.c ****         } else {
 1757              		.loc 1 159 40 is_stmt 0 view .LVU504
 1758 018c 84F85C20 		strb	r2, [r4, #92]
 1759              	.L89:
 163:Core/Src/FusionAhrs.c **** 
 1760              		.loc 1 163 9 is_stmt 1 view .LVU505
 163:Core/Src/FusionAhrs.c **** 
 1761              		.loc 1 163 103 is_stmt 0 view .LVU506
 1762 0190 6269     		ldr	r2, [r4, #20]
 1763              	.LVL52:
 1764              	.LBB82:
 1765              	.LBI82:
 299:Core/Src/FusionAhrs.c **** 
 300:Core/Src/FusionAhrs.c **** /**
 301:Core/Src/FusionAhrs.c ****  * @brief Returns a value limited to maximum and minimum.
 302:Core/Src/FusionAhrs.c ****  * @param value Value.
ARM GAS  /var/folders/w9/l2kswtfn3fs2kslkvv5vg9sh0000gn/T//ccLXrTqc.s 			page 50


 303:Core/Src/FusionAhrs.c ****  * @param min Minimum value.
 304:Core/Src/FusionAhrs.c ****  * @param max Maximum value.
 305:Core/Src/FusionAhrs.c ****  * @return Value limited to maximum and minimum.
 306:Core/Src/FusionAhrs.c ****  */
 307:Core/Src/FusionAhrs.c **** static inline int Clamp(const int value, const int min, const int max) {
 1766              		.loc 1 307 19 is_stmt 1 view .LVU507
 1767              	.LBB83:
 308:Core/Src/FusionAhrs.c ****     if (value < min) {
 1768              		.loc 1 308 5 view .LVU508
 1769              		.loc 1 308 8 is_stmt 0 view .LVU509
 1770 0192 002B     		cmp	r3, #0
 1771 0194 C0F26981 		blt	.L101
 309:Core/Src/FusionAhrs.c ****         return min;
 310:Core/Src/FusionAhrs.c ****     }
 311:Core/Src/FusionAhrs.c ****     if (value > max) {
 1772              		.loc 1 311 5 is_stmt 1 view .LVU510
 1773              		.loc 1 311 8 is_stmt 0 view .LVU511
 1774 0198 9342     		cmp	r3, r2
 1775 019a 00DC     		bgt	.L90
 312:Core/Src/FusionAhrs.c ****         return max;
 313:Core/Src/FusionAhrs.c ****     }
 314:Core/Src/FusionAhrs.c ****     return value;
 1776              		.loc 1 314 12 view .LVU512
 1777 019c 1A46     		mov	r2, r3
 1778              	.LVL53:
 1779              	.L90:
 1780              		.loc 1 314 12 view .LVU513
 1781              	.LBE83:
 1782              	.LBE82:
 163:Core/Src/FusionAhrs.c **** 
 1783              		.loc 1 163 43 discriminator 1 view .LVU514
 1784 019e 2266     		str	r2, [r4, #96]
 166:Core/Src/FusionAhrs.c ****             halfAccelerometerFeedback = ahrs->halfAccelerometerFeedback;
 1785              		.loc 1 166 9 is_stmt 1 view .LVU515
 166:Core/Src/FusionAhrs.c ****             halfAccelerometerFeedback = ahrs->halfAccelerometerFeedback;
 1786              		.loc 1 166 17 is_stmt 0 view .LVU516
 1787 01a0 94F85C30 		ldrb	r3, [r4, #92]	@ zero_extendqisi2
 166:Core/Src/FusionAhrs.c ****             halfAccelerometerFeedback = ahrs->halfAccelerometerFeedback;
 1788              		.loc 1 166 12 view .LVU517
 1789 01a4 2BB9     		cbnz	r3, .L83
 167:Core/Src/FusionAhrs.c ****         }
 1790              		.loc 1 167 13 is_stmt 1 view .LVU518
 167:Core/Src/FusionAhrs.c ****         }
 1791              		.loc 1 167 39 is_stmt 0 view .LVU519
 1792 01a6 1BAB     		add	r3, sp, #108
 1793 01a8 04F14402 		add	r2, r4, #68
 1794 01ac 07CA     		ldm	r2, {r0, r1, r2}
 1795 01ae 83E80700 		stm	r3, {r0, r1, r2}
 1796              	.L83:
 172:Core/Src/FusionAhrs.c ****     ahrs->magnetometerIgnored = true;
 1797              		.loc 1 172 5 is_stmt 1 view .LVU520
 172:Core/Src/FusionAhrs.c ****     ahrs->magnetometerIgnored = true;
 1798              		.loc 1 172 18 is_stmt 0 view .LVU521
 1799 01b2 0023     		movs	r3, #0
 1800 01b4 1893     		str	r3, [sp, #96]	@ float
 1801 01b6 1993     		str	r3, [sp, #100]	@ float
 1802 01b8 1A93     		str	r3, [sp, #104]	@ float
ARM GAS  /var/folders/w9/l2kswtfn3fs2kslkvv5vg9sh0000gn/T//ccLXrTqc.s 			page 51


 173:Core/Src/FusionAhrs.c **** 		
 1803              		.loc 1 173 5 is_stmt 1 view .LVU522
 173:Core/Src/FusionAhrs.c **** 		
 1804              		.loc 1 173 31 is_stmt 0 view .LVU523
 1805 01ba 0123     		movs	r3, #1
 1806 01bc 84F86830 		strb	r3, [r4, #104]
 175:Core/Src/FusionAhrs.c **** 
 1807              		.loc 1 175 5 is_stmt 1 view .LVU524
 1808              	.LBB85:
 1809              	.LBI85:
 191:Core/Inc/FusionMath.h ****     return (vector.axis.x == 0.0f) && (vector.axis.y == 0.0f) && (vector.axis.z == 0.0f);
 1810              		.loc 2 191 20 view .LVU525
 1811              	.LBB86:
 192:Core/Inc/FusionMath.h **** }
 1812              		.loc 2 192 5 view .LVU526
 192:Core/Inc/FusionMath.h **** }
 1813              		.loc 2 192 24 is_stmt 0 view .LVU527
 1814 01c0 01AB     		add	r3, sp, #4
 1815 01c2 DDED017A 		vldr.32	s15, [sp, #4]
 192:Core/Inc/FusionMath.h **** }
 1816              		.loc 2 192 63 view .LVU528
 1817 01c6 F5EE407A 		vcmp.f32	s15, #0
 1818 01ca F1EE10FA 		vmrs	APSR_nzcv, FPSCR
 1819 01ce 0DD1     		bne	.L91
 192:Core/Inc/FusionMath.h **** }
 1820              		.loc 2 192 51 discriminator 1 view .LVU529
 1821 01d0 D3ED017A 		vldr.32	s15, [r3, #4]
 192:Core/Inc/FusionMath.h **** }
 1822              		.loc 2 192 36 discriminator 1 view .LVU530
 1823 01d4 F5EE407A 		vcmp.f32	s15, #0
 1824 01d8 F1EE10FA 		vmrs	APSR_nzcv, FPSCR
 1825 01dc 06D1     		bne	.L91
 192:Core/Inc/FusionMath.h **** }
 1826              		.loc 2 192 78 discriminator 3 view .LVU531
 1827 01de D3ED027A 		vldr.32	s15, [r3, #8]
 192:Core/Inc/FusionMath.h **** }
 1828              		.loc 2 192 63 discriminator 3 view .LVU532
 1829 01e2 F5EE407A 		vcmp.f32	s15, #0
 1830 01e6 F1EE10FA 		vmrs	APSR_nzcv, FPSCR
 1831 01ea 65D0     		beq	.L92
 1832              	.L91:
 1833              	.LBE86:
 1834              	.LBE85:
 1835              	.LBB87:
 178:Core/Src/FusionAhrs.c **** 			
 1836              		.loc 1 178 9 is_stmt 1 view .LVU533
 178:Core/Src/FusionAhrs.c **** 			
 1837              		.loc 1 178 43 is_stmt 0 view .LVU534
 1838 01ec 2046     		mov	r0, r4
 1839 01ee FFF7FEFF 		bl	HalfMagnetic
 1840              	.LVL54:
 1841 01f2 B0EE40AA 		vmov.f32	s20, s0
 1842 01f6 F0EE609A 		vmov.f32	s19, s1
 1843 01fa B0EE419A 		vmov.f32	s18, s2
 1844 01fe 8DED0E0A 		vstr.32	s0, [sp, #56]
 1845 0202 CDED0F0A 		vstr.32	s1, [sp, #60]
 1846 0206 8DED101A 		vstr.32	s2, [sp, #64]
ARM GAS  /var/folders/w9/l2kswtfn3fs2kslkvv5vg9sh0000gn/T//ccLXrTqc.s 			page 52


 181:Core/Src/FusionAhrs.c **** 			
 1847              		.loc 1 181 9 is_stmt 1 view .LVU535
 181:Core/Src/FusionAhrs.c **** 			
 1848              		.loc 1 181 73 is_stmt 0 view .LVU536
 1849 020a DDED011A 		vldr.32	s3, [sp, #4]
 1850 020e 9DED022A 		vldr.32	s4, [sp, #8]
 1851 0212 DDED032A 		vldr.32	s5, [sp, #12]
 1852 0216 9DED1E0A 		vldr.32	s0, [sp, #120]
 1853 021a DDED1F0A 		vldr.32	s1, [sp, #124]
 1854 021e 9DED201A 		vldr.32	s2, [sp, #128]
 1855 0222 FFF7FEFF 		bl	FusionVectorCrossProduct
 1856              	.LVL55:
 1857 0226 8DED240A 		vstr.32	s0, [sp, #144]
 1858 022a CDED250A 		vstr.32	s1, [sp, #148]
 1859 022e 8DED261A 		vstr.32	s2, [sp, #152]
 181:Core/Src/FusionAhrs.c **** 			
 1860              		.loc 1 181 51 discriminator 1 view .LVU537
 1861 0232 FFF7FEFF 		bl	FusionVectorNormalise
 1862              	.LVL56:
 1863 0236 8DED270A 		vstr.32	s0, [sp, #156]
 1864 023a CDED280A 		vstr.32	s1, [sp, #160]
 1865 023e 8DED291A 		vstr.32	s2, [sp, #164]
 181:Core/Src/FusionAhrs.c **** 			
 1866              		.loc 1 181 42 discriminator 2 view .LVU538
 1867 0242 F0EE4A1A 		vmov.f32	s3, s20
 1868 0246 B0EE692A 		vmov.f32	s4, s19
 1869 024a F0EE492A 		vmov.f32	s5, s18
 1870 024e FFF7FEFF 		bl	Feedback
 1871              	.LVL57:
 1872 0252 84ED140A 		vstr.32	s0, [r4, #80]
 1873 0256 C4ED150A 		vstr.32	s1, [r4, #84]
 1874 025a 84ED161A 		vstr.32	s2, [r4, #88]
 184:Core/Src/FusionAhrs.c ****             ahrs->magnetometerIgnored = false;
 1875              		.loc 1 184 9 is_stmt 1 view .LVU539
 184:Core/Src/FusionAhrs.c ****             ahrs->magnetometerIgnored = false;
 1876              		.loc 1 184 18 is_stmt 0 view .LVU540
 1877 025e 94F83430 		ldrb	r3, [r4, #52]	@ zero_extendqisi2
 184:Core/Src/FusionAhrs.c ****             ahrs->magnetometerIgnored = false;
 1878              		.loc 1 184 12 view .LVU541
 1879 0262 4BB9     		cbnz	r3, .L93
 184:Core/Src/FusionAhrs.c ****             ahrs->magnetometerIgnored = false;
 1880              		.loc 1 184 47 discriminator 1 view .LVU542
 1881 0264 FFF7FEFF 		bl	FusionVectorMagnitudeSquared
 1882              	.LVL58:
 184:Core/Src/FusionAhrs.c ****             ahrs->magnetometerIgnored = false;
 1883              		.loc 1 184 125 discriminator 1 view .LVU543
 1884 0268 D4ED047A 		vldr.32	s15, [r4, #16]
 184:Core/Src/FusionAhrs.c ****             ahrs->magnetometerIgnored = false;
 1885              		.loc 1 184 42 discriminator 1 view .LVU544
 1886 026c F4EEC07A 		vcmpe.f32	s15, s0
 1887 0270 F1EE10FA 		vmrs	APSR_nzcv, FPSCR
 1888 0274 C0F2FB80 		blt	.L104
 1889              	.L93:
 185:Core/Src/FusionAhrs.c ****             ahrs->magneticRecoveryTrigger -= 9;
 1890              		.loc 1 185 13 is_stmt 1 view .LVU545
 185:Core/Src/FusionAhrs.c ****             ahrs->magneticRecoveryTrigger -= 9;
 1891              		.loc 1 185 39 is_stmt 0 view .LVU546
ARM GAS  /var/folders/w9/l2kswtfn3fs2kslkvv5vg9sh0000gn/T//ccLXrTqc.s 			page 53


 1892 0278 0023     		movs	r3, #0
 1893 027a 84F86830 		strb	r3, [r4, #104]
 186:Core/Src/FusionAhrs.c ****         } else {
 1894              		.loc 1 186 13 is_stmt 1 view .LVU547
 186:Core/Src/FusionAhrs.c ****         } else {
 1895              		.loc 1 186 17 is_stmt 0 view .LVU548
 1896 027e E36E     		ldr	r3, [r4, #108]
 186:Core/Src/FusionAhrs.c ****         } else {
 1897              		.loc 1 186 43 view .LVU549
 1898 0280 093B     		subs	r3, r3, #9
 1899 0282 E366     		str	r3, [r4, #108]
 1900              	.L96:
 192:Core/Src/FusionAhrs.c ****             ahrs->magneticRecoveryTimeout = 0;
 1901              		.loc 1 192 9 is_stmt 1 view .LVU550
 192:Core/Src/FusionAhrs.c ****             ahrs->magneticRecoveryTimeout = 0;
 1902              		.loc 1 192 17 is_stmt 0 view .LVU551
 1903 0284 E36E     		ldr	r3, [r4, #108]
 192:Core/Src/FusionAhrs.c ****             ahrs->magneticRecoveryTimeout = 0;
 1904              		.loc 1 192 49 view .LVU552
 1905 0286 226F     		ldr	r2, [r4, #112]
 192:Core/Src/FusionAhrs.c ****             ahrs->magneticRecoveryTimeout = 0;
 1906              		.loc 1 192 12 view .LVU553
 1907 0288 9342     		cmp	r3, r2
 1908 028a 40F3F480 		ble	.L97
 193:Core/Src/FusionAhrs.c ****             ahrs->magnetometerIgnored = false;
 1909              		.loc 1 193 13 is_stmt 1 view .LVU554
 193:Core/Src/FusionAhrs.c ****             ahrs->magnetometerIgnored = false;
 1910              		.loc 1 193 43 is_stmt 0 view .LVU555
 1911 028e 0022     		movs	r2, #0
 1912 0290 2267     		str	r2, [r4, #112]
 194:Core/Src/FusionAhrs.c ****         } else {
 1913              		.loc 1 194 13 is_stmt 1 view .LVU556
 194:Core/Src/FusionAhrs.c ****         } else {
 1914              		.loc 1 194 39 is_stmt 0 view .LVU557
 1915 0292 84F86820 		strb	r2, [r4, #104]
 1916              	.L98:
 198:Core/Src/FusionAhrs.c **** 
 1917              		.loc 1 198 9 is_stmt 1 view .LVU558
 198:Core/Src/FusionAhrs.c **** 
 1918              		.loc 1 198 95 is_stmt 0 view .LVU559
 1919 0296 6269     		ldr	r2, [r4, #20]
 1920              	.LVL59:
 1921              	.LBB88:
 1922              	.LBI88:
 307:Core/Src/FusionAhrs.c ****     if (value < min) {
 1923              		.loc 1 307 19 is_stmt 1 view .LVU560
 1924              	.LBB89:
 308:Core/Src/FusionAhrs.c ****         return min;
 1925              		.loc 1 308 5 view .LVU561
 308:Core/Src/FusionAhrs.c ****         return min;
 1926              		.loc 1 308 8 is_stmt 0 view .LVU562
 1927 0298 002B     		cmp	r3, #0
 1928 029a C0F2EF80 		blt	.L102
 311:Core/Src/FusionAhrs.c ****         return max;
 1929              		.loc 1 311 5 is_stmt 1 view .LVU563
 311:Core/Src/FusionAhrs.c ****         return max;
 1930              		.loc 1 311 8 is_stmt 0 view .LVU564
ARM GAS  /var/folders/w9/l2kswtfn3fs2kslkvv5vg9sh0000gn/T//ccLXrTqc.s 			page 54


 1931 029e 9342     		cmp	r3, r2
 1932 02a0 00DC     		bgt	.L99
 1933              		.loc 1 314 12 view .LVU565
 1934 02a2 1A46     		mov	r2, r3
 1935              	.LVL60:
 1936              	.L99:
 1937              		.loc 1 314 12 view .LVU566
 1938              	.LBE89:
 1939              	.LBE88:
 198:Core/Src/FusionAhrs.c **** 
 1940              		.loc 1 198 39 discriminator 1 view .LVU567
 1941 02a4 E266     		str	r2, [r4, #108]
 201:Core/Src/FusionAhrs.c ****             halfMagnetometerFeedback = ahrs->halfMagnetometerFeedback;
 1942              		.loc 1 201 9 is_stmt 1 view .LVU568
 201:Core/Src/FusionAhrs.c ****             halfMagnetometerFeedback = ahrs->halfMagnetometerFeedback;
 1943              		.loc 1 201 17 is_stmt 0 view .LVU569
 1944 02a6 94F86830 		ldrb	r3, [r4, #104]	@ zero_extendqisi2
 201:Core/Src/FusionAhrs.c ****             halfMagnetometerFeedback = ahrs->halfMagnetometerFeedback;
 1945              		.loc 1 201 12 view .LVU570
 1946 02aa 2BB9     		cbnz	r3, .L92
 202:Core/Src/FusionAhrs.c ****         }
 1947              		.loc 1 202 13 is_stmt 1 view .LVU571
 202:Core/Src/FusionAhrs.c ****         }
 1948              		.loc 1 202 38 is_stmt 0 view .LVU572
 1949 02ac 18AB     		add	r3, sp, #96
 1950 02ae 04F15002 		add	r2, r4, #80
 1951 02b2 07CA     		ldm	r2, {r0, r1, r2}
 1952 02b4 83E80700 		stm	r3, {r0, r1, r2}
 1953              	.L92:
 202:Core/Src/FusionAhrs.c ****         }
 1954              		.loc 1 202 38 view .LVU573
 1955              	.LBE87:
 207:Core/Src/FusionAhrs.c **** 
 1956              		.loc 1 207 5 is_stmt 1 view .LVU574
 1957              	.LVL61:
 1958              	.LBB92:
 1959              	.LBI92:
 240:Core/Inc/FusionMath.h ****     const FusionVector result = {.axis = {
 1960              		.loc 2 240 28 view .LVU575
 1961              	.LBB93:
 241:Core/Inc/FusionMath.h ****             .x = vector.axis.x * scalar,
 1962              		.loc 2 241 5 view .LVU576
 242:Core/Inc/FusionMath.h ****             .y = vector.axis.y * scalar,
 1963              		.loc 2 242 32 is_stmt 0 view .LVU577
 1964 02b8 DFED717A 		vldr.32	s15, .L106
 1965 02bc 28EE278A 		vmul.f32	s16, s16, s15
 241:Core/Inc/FusionMath.h ****             .x = vector.axis.x * scalar,
 1966              		.loc 2 241 24 view .LVU578
 1967 02c0 0EAD     		add	r5, sp, #56
 1968 02c2 85ED008A 		vstr.32	s16, [r5]
 243:Core/Inc/FusionMath.h ****             .z = vector.axis.z * scalar,
 1969              		.loc 2 243 29 view .LVU579
 1970 02c6 9DED086A 		vldr.32	s12, [sp, #32]
 243:Core/Inc/FusionMath.h ****             .z = vector.axis.z * scalar,
 1971              		.loc 2 243 32 view .LVU580
 1972 02ca 26EE276A 		vmul.f32	s12, s12, s15
 241:Core/Inc/FusionMath.h ****             .x = vector.axis.x * scalar,
ARM GAS  /var/folders/w9/l2kswtfn3fs2kslkvv5vg9sh0000gn/T//ccLXrTqc.s 			page 55


 1973              		.loc 2 241 24 view .LVU581
 1974 02ce 85ED016A 		vstr.32	s12, [r5, #4]
 244:Core/Inc/FusionMath.h ****     }};
 1975              		.loc 2 244 29 view .LVU582
 1976 02d2 DDED096A 		vldr.32	s13, [sp, #36]
 244:Core/Inc/FusionMath.h ****     }};
 1977              		.loc 2 244 32 view .LVU583
 1978 02d6 66EEA76A 		vmul.f32	s13, s13, s15
 241:Core/Inc/FusionMath.h ****             .x = vector.axis.x * scalar,
 1979              		.loc 2 241 24 view .LVU584
 1980 02da C5ED026A 		vstr.32	s13, [r5, #8]
 246:Core/Inc/FusionMath.h **** }
 1981              		.loc 2 246 5 is_stmt 1 view .LVU585
 246:Core/Inc/FusionMath.h **** }
 1982              		.loc 2 246 12 is_stmt 0 view .LVU586
 1983 02de 4BAB     		add	r3, sp, #300
 1984 02e0 95E80700 		ldm	r5, {r0, r1, r2}
 1985 02e4 83E80700 		stm	r3, {r0, r1, r2}
 1986 02e8 15AE     		add	r6, sp, #84
 1987 02ea 86E80700 		stm	r6, {r0, r1, r2}
 1988              	.LVL62:
 246:Core/Inc/FusionMath.h **** }
 1989              		.loc 2 246 12 view .LVU587
 1990              	.LBE93:
 1991              	.LBE92:
 210:Core/Src/FusionAhrs.c **** 
 1992              		.loc 1 210 5 is_stmt 1 view .LVU588
 1993              	.LBB94:
 1994              	.LBI94:
 201:Core/Inc/FusionMath.h ****     const FusionVector result = {.axis = {
 1995              		.loc 2 201 28 view .LVU589
 1996              	.LBB95:
 202:Core/Inc/FusionMath.h ****             .x = vectorA.axis.x + vectorB.axis.x,
 1997              		.loc 2 202 5 view .LVU590
 203:Core/Inc/FusionMath.h ****             .y = vectorA.axis.y + vectorB.axis.y,
 1998              		.loc 2 203 33 is_stmt 0 view .LVU591
 1999 02ee 9DED1B0A 		vldr.32	s0, [sp, #108]
 2000 02f2 DDED187A 		vldr.32	s15, [sp, #96]
 2001 02f6 30EE270A 		vadd.f32	s0, s0, s15
 202:Core/Inc/FusionMath.h ****             .x = vectorA.axis.x + vectorB.axis.x,
 2002              		.loc 2 202 24 view .LVU592
 2003 02fa 85ED000A 		vstr.32	s0, [r5]
 204:Core/Inc/FusionMath.h ****             .z = vectorA.axis.z + vectorB.axis.z,
 2004              		.loc 2 204 33 view .LVU593
 2005 02fe DDED1C7A 		vldr.32	s15, [sp, #112]
 2006 0302 9DED197A 		vldr.32	s14, [sp, #100]
 2007 0306 77EE877A 		vadd.f32	s15, s15, s14
 202:Core/Inc/FusionMath.h ****             .x = vectorA.axis.x + vectorB.axis.x,
 2008              		.loc 2 202 24 view .LVU594
 2009 030a C5ED017A 		vstr.32	s15, [r5, #4]
 205:Core/Inc/FusionMath.h ****     }};
 2010              		.loc 2 205 33 view .LVU595
 2011 030e DDED1D5A 		vldr.32	s11, [sp, #116]
 2012 0312 9DED1A7A 		vldr.32	s14, [sp, #104]
 2013 0316 75EE875A 		vadd.f32	s11, s11, s14
 202:Core/Inc/FusionMath.h ****             .x = vectorA.axis.x + vectorB.axis.x,
 2014              		.loc 2 202 24 view .LVU596
ARM GAS  /var/folders/w9/l2kswtfn3fs2kslkvv5vg9sh0000gn/T//ccLXrTqc.s 			page 56


 2015 031a C5ED025A 		vstr.32	s11, [r5, #8]
 207:Core/Inc/FusionMath.h **** }
 2016              		.loc 2 207 5 is_stmt 1 view .LVU597
 207:Core/Inc/FusionMath.h **** }
 2017              		.loc 2 207 12 is_stmt 0 view .LVU598
 2018 031e 48AB     		add	r3, sp, #288
 2019 0320 95E80700 		ldm	r5, {r0, r1, r2}
 2020 0324 83E80700 		stm	r3, {r0, r1, r2}
 2021 0328 2AAE     		add	r6, sp, #168
 2022 032a 86E80700 		stm	r6, {r0, r1, r2}
 2023              	.LBE95:
 2024              	.LBE94:
 210:Core/Src/FusionAhrs.c **** 
 2025              		.loc 1 210 180 discriminator 1 view .LVU599
 2026 032e 94ED0E7A 		vldr.32	s14, [r4, #56]
 2027              	.LVL63:
 2028              	.LBB96:
 2029              	.LBI96:
 240:Core/Inc/FusionMath.h ****     const FusionVector result = {.axis = {
 2030              		.loc 2 240 28 is_stmt 1 view .LVU600
 2031              	.LBB97:
 241:Core/Inc/FusionMath.h ****             .x = vector.axis.x * scalar,
 2032              		.loc 2 241 5 view .LVU601
 242:Core/Inc/FusionMath.h ****             .y = vector.axis.y * scalar,
 2033              		.loc 2 242 32 is_stmt 0 view .LVU602
 2034 0332 27EE000A 		vmul.f32	s0, s14, s0
 241:Core/Inc/FusionMath.h ****             .x = vector.axis.x * scalar,
 2035              		.loc 2 241 24 view .LVU603
 2036 0336 85ED000A 		vstr.32	s0, [r5]
 243:Core/Inc/FusionMath.h ****             .z = vector.axis.z * scalar,
 2037              		.loc 2 243 32 view .LVU604
 2038 033a 67EE277A 		vmul.f32	s15, s14, s15
 241:Core/Inc/FusionMath.h ****             .x = vector.axis.x * scalar,
 2039              		.loc 2 241 24 view .LVU605
 2040 033e C5ED017A 		vstr.32	s15, [r5, #4]
 244:Core/Inc/FusionMath.h ****     }};
 2041              		.loc 2 244 32 view .LVU606
 2042 0342 27EE257A 		vmul.f32	s14, s14, s11
 2043              	.LVL64:
 241:Core/Inc/FusionMath.h ****             .x = vector.axis.x * scalar,
 2044              		.loc 2 241 24 view .LVU607
 2045 0346 85ED027A 		vstr.32	s14, [r5, #8]
 246:Core/Inc/FusionMath.h **** }
 2046              		.loc 2 246 5 is_stmt 1 view .LVU608
 246:Core/Inc/FusionMath.h **** }
 2047              		.loc 2 246 12 is_stmt 0 view .LVU609
 2048 034a 45AB     		add	r3, sp, #276
 2049 034c 95E80700 		ldm	r5, {r0, r1, r2}
 2050 0350 83E80700 		stm	r3, {r0, r1, r2}
 2051 0354 2DAE     		add	r6, sp, #180
 2052 0356 86E80700 		stm	r6, {r0, r1, r2}
 2053              	.LVL65:
 246:Core/Inc/FusionMath.h **** }
 2054              		.loc 2 246 12 view .LVU610
 2055              	.LBE97:
 2056              	.LBE96:
 2057              	.LBB98:
ARM GAS  /var/folders/w9/l2kswtfn3fs2kslkvv5vg9sh0000gn/T//ccLXrTqc.s 			page 57


 2058              	.LBI98:
 201:Core/Inc/FusionMath.h ****     const FusionVector result = {.axis = {
 2059              		.loc 2 201 28 is_stmt 1 view .LVU611
 2060              	.LBB99:
 202:Core/Inc/FusionMath.h ****             .x = vectorA.axis.x + vectorB.axis.x,
 2061              		.loc 2 202 5 view .LVU612
 203:Core/Inc/FusionMath.h ****             .y = vectorA.axis.y + vectorB.axis.y,
 2062              		.loc 2 203 33 is_stmt 0 view .LVU613
 2063 035a 30EE080A 		vadd.f32	s0, s0, s16
 202:Core/Inc/FusionMath.h ****             .x = vectorA.axis.x + vectorB.axis.x,
 2064              		.loc 2 202 24 view .LVU614
 2065 035e 85ED000A 		vstr.32	s0, [r5]
 204:Core/Inc/FusionMath.h ****             .z = vectorA.axis.z + vectorB.axis.z,
 2066              		.loc 2 204 33 view .LVU615
 2067 0362 77EE867A 		vadd.f32	s15, s15, s12
 202:Core/Inc/FusionMath.h ****             .x = vectorA.axis.x + vectorB.axis.x,
 2068              		.loc 2 202 24 view .LVU616
 2069 0366 C5ED017A 		vstr.32	s15, [r5, #4]
 205:Core/Inc/FusionMath.h ****     }};
 2070              		.loc 2 205 33 view .LVU617
 2071 036a 37EE267A 		vadd.f32	s14, s14, s13
 202:Core/Inc/FusionMath.h ****             .x = vectorA.axis.x + vectorB.axis.x,
 2072              		.loc 2 202 24 view .LVU618
 2073 036e 85ED027A 		vstr.32	s14, [r5, #8]
 207:Core/Inc/FusionMath.h **** }
 2074              		.loc 2 207 5 is_stmt 1 view .LVU619
 207:Core/Inc/FusionMath.h **** }
 2075              		.loc 2 207 12 is_stmt 0 view .LVU620
 2076 0372 42AB     		add	r3, sp, #264
 2077 0374 95E80700 		ldm	r5, {r0, r1, r2}
 2078 0378 83E80700 		stm	r3, {r0, r1, r2}
 2079 037c 12AE     		add	r6, sp, #72
 2080 037e 86E80700 		stm	r6, {r0, r1, r2}
 2081              	.LBE99:
 2082              	.LBE98:
 213:Core/Src/FusionAhrs.c **** 
 2083              		.loc 1 213 5 is_stmt 1 view .LVU621
 2084              	.LVL66:
 2085              	.LBB100:
 2086              	.LBI100:
 240:Core/Inc/FusionMath.h ****     const FusionVector result = {.axis = {
 2087              		.loc 2 240 28 view .LVU622
 2088              	.LBB101:
 241:Core/Inc/FusionMath.h ****             .x = vector.axis.x * scalar,
 2089              		.loc 2 241 5 view .LVU623
 242:Core/Inc/FusionMath.h ****             .y = vector.axis.y * scalar,
 2090              		.loc 2 242 32 is_stmt 0 view .LVU624
 2091 0382 28EE800A 		vmul.f32	s0, s17, s0
 241:Core/Inc/FusionMath.h ****             .x = vector.axis.x * scalar,
 2092              		.loc 2 241 24 view .LVU625
 2093 0386 85ED000A 		vstr.32	s0, [r5]
 243:Core/Inc/FusionMath.h ****             .z = vector.axis.z * scalar,
 2094              		.loc 2 243 32 view .LVU626
 2095 038a 68EEA77A 		vmul.f32	s15, s17, s15
 241:Core/Inc/FusionMath.h ****             .x = vector.axis.x * scalar,
 2096              		.loc 2 241 24 view .LVU627
 2097 038e C5ED017A 		vstr.32	s15, [r5, #4]
ARM GAS  /var/folders/w9/l2kswtfn3fs2kslkvv5vg9sh0000gn/T//ccLXrTqc.s 			page 58


 244:Core/Inc/FusionMath.h ****     }};
 2098              		.loc 2 244 32 view .LVU628
 2099 0392 68EE878A 		vmul.f32	s17, s17, s14
 2100              	.LVL67:
 241:Core/Inc/FusionMath.h ****             .x = vector.axis.x * scalar,
 2101              		.loc 2 241 24 view .LVU629
 2102 0396 C5ED028A 		vstr.32	s17, [r5, #8]
 246:Core/Inc/FusionMath.h **** }
 2103              		.loc 2 246 5 is_stmt 1 view .LVU630
 246:Core/Inc/FusionMath.h **** }
 2104              		.loc 2 246 12 is_stmt 0 view .LVU631
 2105 039a 3FAB     		add	r3, sp, #252
 2106 039c 95E80700 		ldm	r5, {r0, r1, r2}
 2107 03a0 83E80700 		stm	r3, {r0, r1, r2}
 2108 03a4 30AE     		add	r6, sp, #192
 2109 03a6 86E80700 		stm	r6, {r0, r1, r2}
 2110              	.LVL68:
 246:Core/Inc/FusionMath.h **** }
 2111              		.loc 2 246 12 view .LVU632
 2112              	.LBE101:
 2113              	.LBE100:
 213:Core/Src/FusionAhrs.c **** 
 2114              		.loc 1 213 62 discriminator 1 view .LVU633
 2115 03aa 9DED302A 		vldr.32	s4, [sp, #192]
 2116 03ae DDED312A 		vldr.32	s5, [sp, #196]
 2117 03b2 9DED323A 		vldr.32	s6, [sp, #200]
 2118 03b6 94ED060A 		vldr.32	s0, [r4, #24]
 2119 03ba D4ED070A 		vldr.32	s1, [r4, #28]
 2120 03be 94ED081A 		vldr.32	s2, [r4, #32]
 2121 03c2 D4ED091A 		vldr.32	s3, [r4, #36]
 2122 03c6 FFF7FEFF 		bl	FusionQuaternionMultiplyVector
 2123              	.LVL69:
 2124 03ca 8DED330A 		vstr.32	s0, [sp, #204]
 2125 03ce CDED340A 		vstr.32	s1, [sp, #208]
 2126 03d2 8DED351A 		vstr.32	s2, [sp, #212]
 2127 03d6 CDED361A 		vstr.32	s3, [sp, #216]
 2128 03da 0DF1280E 		add	lr, sp, #40
 2129 03de 04F1180C 		add	ip, r4, #24
 2130 03e2 9CE80F00 		ldm	ip, {r0, r1, r2, r3}
 2131 03e6 8EE80F00 		stm	lr, {r0, r1, r2, r3}
 2132              	.LBB102:
 2133              	.LBI102:
 334:Core/Inc/FusionMath.h ****     const FusionQuaternion result = {.element = {
 2134              		.loc 2 334 32 is_stmt 1 view .LVU634
 2135              	.LBB103:
 335:Core/Inc/FusionMath.h ****             .w = quaternionA.element.w + quaternionB.element.w,
 2136              		.loc 2 335 5 view .LVU635
 336:Core/Inc/FusionMath.h ****             .x = quaternionA.element.x + quaternionB.element.x,
 2137              		.loc 2 336 37 is_stmt 0 view .LVU636
 2138 03ea DEED007A 		vldr.32	s15, [lr]
 336:Core/Inc/FusionMath.h ****             .x = quaternionA.element.x + quaternionB.element.x,
 2139              		.loc 2 336 40 view .LVU637
 2140 03ee 77EE807A 		vadd.f32	s15, s15, s0
 335:Core/Inc/FusionMath.h ****             .w = quaternionA.element.w + quaternionB.element.w,
 2141              		.loc 2 335 28 view .LVU638
 2142 03f2 C5ED007A 		vstr.32	s15, [r5]
 337:Core/Inc/FusionMath.h ****             .y = quaternionA.element.y + quaternionB.element.y,
ARM GAS  /var/folders/w9/l2kswtfn3fs2kslkvv5vg9sh0000gn/T//ccLXrTqc.s 			page 59


 2143              		.loc 2 337 37 view .LVU639
 2144 03f6 DEED017A 		vldr.32	s15, [lr, #4]
 337:Core/Inc/FusionMath.h ****             .y = quaternionA.element.y + quaternionB.element.y,
 2145              		.loc 2 337 40 view .LVU640
 2146 03fa 77EEA07A 		vadd.f32	s15, s15, s1
 335:Core/Inc/FusionMath.h ****             .w = quaternionA.element.w + quaternionB.element.w,
 2147              		.loc 2 335 28 view .LVU641
 2148 03fe C5ED017A 		vstr.32	s15, [r5, #4]
 338:Core/Inc/FusionMath.h ****             .z = quaternionA.element.z + quaternionB.element.z,
 2149              		.loc 2 338 37 view .LVU642
 2150 0402 DEED027A 		vldr.32	s15, [lr, #8]
 338:Core/Inc/FusionMath.h ****             .z = quaternionA.element.z + quaternionB.element.z,
 2151              		.loc 2 338 40 view .LVU643
 2152 0406 77EE817A 		vadd.f32	s15, s15, s2
 335:Core/Inc/FusionMath.h ****             .w = quaternionA.element.w + quaternionB.element.w,
 2153              		.loc 2 335 28 view .LVU644
 2154 040a C5ED027A 		vstr.32	s15, [r5, #8]
 339:Core/Inc/FusionMath.h ****     }};
 2155              		.loc 2 339 37 view .LVU645
 2156 040e DEED037A 		vldr.32	s15, [lr, #12]
 339:Core/Inc/FusionMath.h ****     }};
 2157              		.loc 2 339 40 view .LVU646
 2158 0412 77EEA17A 		vadd.f32	s15, s15, s3
 335:Core/Inc/FusionMath.h ****             .w = quaternionA.element.w + quaternionB.element.w,
 2159              		.loc 2 335 28 view .LVU647
 2160 0416 C5ED037A 		vstr.32	s15, [r5, #12]
 341:Core/Inc/FusionMath.h **** }
 2161              		.loc 2 341 5 is_stmt 1 view .LVU648
 341:Core/Inc/FusionMath.h **** }
 2162              		.loc 2 341 12 is_stmt 0 view .LVU649
 2163 041a 0DF1EC0E 		add	lr, sp, #236
 2164 041e 95E80F00 		ldm	r5, {r0, r1, r2, r3}
 2165 0422 8EE80F00 		stm	lr, {r0, r1, r2, r3}
 2166 0426 37AD     		add	r5, sp, #220
 2167 0428 85E80F00 		stm	r5, {r0, r1, r2, r3}
 2168              	.LBE103:
 2169              	.LBE102:
 213:Core/Src/FusionAhrs.c **** 
 2170              		.loc 1 213 24 discriminator 2 view .LVU650
 2171 042c 8CE80F00 		stm	ip, {r0, r1, r2, r3}
 216:Core/Src/FusionAhrs.c **** #undef Q
 2172              		.loc 1 216 5 is_stmt 1 view .LVU651
 216:Core/Src/FusionAhrs.c **** #undef Q
 2173              		.loc 1 216 24 is_stmt 0 view .LVU652
 2174 0430 94ED060A 		vldr.32	s0, [r4, #24]
 2175 0434 D4ED070A 		vldr.32	s1, [r4, #28]
 2176 0438 94ED081A 		vldr.32	s2, [r4, #32]
 2177 043c D4ED091A 		vldr.32	s3, [r4, #36]
 2178 0440 FFF7FEFF 		bl	FusionQuaternionNormalise
 2179              	.LVL70:
 2180 0444 84ED060A 		vstr.32	s0, [r4, #24]
 2181 0448 C4ED070A 		vstr.32	s1, [r4, #28]
 2182 044c 84ED081A 		vstr.32	s2, [r4, #32]
 2183 0450 C4ED091A 		vstr.32	s3, [r4, #36]
 218:Core/Src/FusionAhrs.c **** 
 2184              		.loc 1 218 1 view .LVU653
 2185 0454 4EB0     		add	sp, sp, #312
ARM GAS  /var/folders/w9/l2kswtfn3fs2kslkvv5vg9sh0000gn/T//ccLXrTqc.s 			page 60


 2186              	.LCFI42:
 2187              		.cfi_remember_state
 2188              		.cfi_def_cfa_offset 40
 2189              		@ sp needed
 2190 0456 BDEC068B 		vldm	sp!, {d8-d10}
 2191              	.LCFI43:
 2192              		.cfi_restore 84
 2193              		.cfi_restore 85
 2194              		.cfi_restore 82
 2195              		.cfi_restore 83
 2196              		.cfi_restore 80
 2197              		.cfi_restore 81
 2198              		.cfi_def_cfa_offset 16
 2199 045a 70BD     		pop	{r4, r5, r6, pc}
 2200              	.LVL71:
 2201              	.L103:
 2202              	.LCFI44:
 2203              		.cfi_restore_state
 153:Core/Src/FusionAhrs.c ****         }
 2204              		.loc 1 153 13 is_stmt 1 view .LVU654
 153:Core/Src/FusionAhrs.c ****         }
 2205              		.loc 1 153 17 is_stmt 0 view .LVU655
 2206 045c 236E     		ldr	r3, [r4, #96]
 153:Core/Src/FusionAhrs.c ****         }
 2207              		.loc 1 153 47 view .LVU656
 2208 045e 0133     		adds	r3, r3, #1
 2209 0460 2366     		str	r3, [r4, #96]
 2210 0462 8CE6     		b	.L87
 2211              	.L88:
 161:Core/Src/FusionAhrs.c ****         }
 2212              		.loc 1 161 13 is_stmt 1 view .LVU657
 161:Core/Src/FusionAhrs.c ****         }
 2213              		.loc 1 161 63 is_stmt 0 view .LVU658
 2214 0464 6269     		ldr	r2, [r4, #20]
 161:Core/Src/FusionAhrs.c ****         }
 2215              		.loc 1 161 47 view .LVU659
 2216 0466 6266     		str	r2, [r4, #100]
 2217 0468 92E6     		b	.L89
 2218              	.LVL72:
 2219              	.L101:
 2220              	.LBB104:
 2221              	.LBB84:
 309:Core/Src/FusionAhrs.c ****     }
 2222              		.loc 1 309 16 view .LVU660
 2223 046a 0022     		movs	r2, #0
 2224              	.LVL73:
 309:Core/Src/FusionAhrs.c ****     }
 2225              		.loc 1 309 16 view .LVU661
 2226 046c 97E6     		b	.L90
 2227              	.LVL74:
 2228              	.L104:
 309:Core/Src/FusionAhrs.c ****     }
 2229              		.loc 1 309 16 view .LVU662
 2230              	.LBE84:
 2231              	.LBE104:
 2232              	.LBB105:
 188:Core/Src/FusionAhrs.c ****         }
ARM GAS  /var/folders/w9/l2kswtfn3fs2kslkvv5vg9sh0000gn/T//ccLXrTqc.s 			page 61


 2233              		.loc 1 188 13 is_stmt 1 view .LVU663
 188:Core/Src/FusionAhrs.c ****         }
 2234              		.loc 1 188 17 is_stmt 0 view .LVU664
 2235 046e E36E     		ldr	r3, [r4, #108]
 188:Core/Src/FusionAhrs.c ****         }
 2236              		.loc 1 188 43 view .LVU665
 2237 0470 0133     		adds	r3, r3, #1
 2238 0472 E366     		str	r3, [r4, #108]
 2239 0474 06E7     		b	.L96
 2240              	.L97:
 196:Core/Src/FusionAhrs.c ****         }
 2241              		.loc 1 196 13 is_stmt 1 view .LVU666
 196:Core/Src/FusionAhrs.c ****         }
 2242              		.loc 1 196 59 is_stmt 0 view .LVU667
 2243 0476 6269     		ldr	r2, [r4, #20]
 196:Core/Src/FusionAhrs.c ****         }
 2244              		.loc 1 196 43 view .LVU668
 2245 0478 2267     		str	r2, [r4, #112]
 2246 047a 0CE7     		b	.L98
 2247              	.LVL75:
 2248              	.L102:
 2249              	.LBB91:
 2250              	.LBB90:
 309:Core/Src/FusionAhrs.c ****     }
 2251              		.loc 1 309 16 view .LVU669
 2252 047c 0022     		movs	r2, #0
 2253              	.LVL76:
 309:Core/Src/FusionAhrs.c ****     }
 2254              		.loc 1 309 16 view .LVU670
 2255 047e 11E7     		b	.L99
 2256              	.L107:
 2257              		.align	2
 2258              	.L106:
 2259 0480 35FA0E3C 		.word	1007614517
 2260              	.LBE90:
 2261              	.LBE91:
 2262              	.LBE105:
 2263              		.cfi_endproc
 2264              	.LFE25:
 2266              		.section	.text.FusionAhrsUpdateExternalHeading,"ax",%progbits
 2267              		.align	1
 2268              		.global	FusionAhrsUpdateExternalHeading
 2269              		.syntax unified
 2270              		.thumb
 2271              		.thumb_func
 2273              	FusionAhrsUpdateExternalHeading:
 2274              	.LVL77:
 2275              	.LFB31:
 315:Core/Src/FusionAhrs.c **** }
 316:Core/Src/FusionAhrs.c **** 
 317:Core/Src/FusionAhrs.c **** /**
 318:Core/Src/FusionAhrs.c ****  * @brief Updates the AHRS algorithm using the gyroscope and accelerometer
 319:Core/Src/FusionAhrs.c ****  * measurements only.
 320:Core/Src/FusionAhrs.c ****  * @param ahrs AHRS algorithm structure.
 321:Core/Src/FusionAhrs.c ****  * @param gyroscope Gyroscope measurement in degrees per second.
 322:Core/Src/FusionAhrs.c ****  * @param accelerometer Accelerometer measurement in g.
 323:Core/Src/FusionAhrs.c ****  * @param deltaTime Delta time in seconds.
ARM GAS  /var/folders/w9/l2kswtfn3fs2kslkvv5vg9sh0000gn/T//ccLXrTqc.s 			page 62


 324:Core/Src/FusionAhrs.c ****  */
 325:Core/Src/FusionAhrs.c **** void FusionAhrsUpdateNoMagnetometer(FusionAhrs *const ahrs, const FusionVector gyroscope, const Fus
 326:Core/Src/FusionAhrs.c **** 
 327:Core/Src/FusionAhrs.c ****     // Update AHRS algorithm
 328:Core/Src/FusionAhrs.c ****     FusionAhrsUpdate(ahrs, gyroscope, accelerometer, FUSION_VECTOR_ZERO, deltaTime);
 329:Core/Src/FusionAhrs.c **** 
 330:Core/Src/FusionAhrs.c ****     // Zero heading during initialisation
 331:Core/Src/FusionAhrs.c ****     if (ahrs->initialising == true) {
 332:Core/Src/FusionAhrs.c ****         FusionAhrsSetHeading(ahrs, 0.0f);
 333:Core/Src/FusionAhrs.c ****     }
 334:Core/Src/FusionAhrs.c **** }
 335:Core/Src/FusionAhrs.c **** 
 336:Core/Src/FusionAhrs.c **** /**
 337:Core/Src/FusionAhrs.c ****  * @brief Updates the AHRS algorithm using the gyroscope, accelerometer, and
 338:Core/Src/FusionAhrs.c ****  * heading measurements.
 339:Core/Src/FusionAhrs.c ****  * @param ahrs AHRS algorithm structure.
 340:Core/Src/FusionAhrs.c ****  * @param gyroscope Gyroscope measurement in degrees per second.
 341:Core/Src/FusionAhrs.c ****  * @param accelerometer Accelerometer measurement in g.
 342:Core/Src/FusionAhrs.c ****  * @param heading Heading measurement in degrees.
 343:Core/Src/FusionAhrs.c ****  * @param deltaTime Delta time in seconds.
 344:Core/Src/FusionAhrs.c ****  */
 345:Core/Src/FusionAhrs.c **** void FusionAhrsUpdateExternalHeading(FusionAhrs *const ahrs, const FusionVector gyroscope, const Fu
 2276              		.loc 1 345 170 is_stmt 1 view -0
 2277              		.cfi_startproc
 2278              		@ args = 0, pretend = 0, frame = 40
 2279              		@ frame_needed = 0, uses_anonymous_args = 0
 2280              		.loc 1 345 170 is_stmt 0 view .LVU672
 2281 0000 10B5     		push	{r4, lr}
 2282              	.LCFI45:
 2283              		.cfi_def_cfa_offset 8
 2284              		.cfi_offset 4, -8
 2285              		.cfi_offset 14, -4
 2286 0002 2DED068B 		vpush.64	{d8, d9, d10}
 2287              	.LCFI46:
 2288              		.cfi_def_cfa_offset 32
 2289              		.cfi_offset 80, -32
 2290              		.cfi_offset 81, -28
 2291              		.cfi_offset 82, -24
 2292              		.cfi_offset 83, -20
 2293              		.cfi_offset 84, -16
 2294              		.cfi_offset 85, -12
 2295 0006 8AB0     		sub	sp, sp, #40
 2296              	.LCFI47:
 2297              		.cfi_def_cfa_offset 72
 2298 0008 0446     		mov	r4, r0
 2299 000a B0EE438A 		vmov.f32	s16, s6
 2300 000e B0EE63AA 		vmov.f32	s20, s7
 2301 0012 8DED030A 		vstr.32	s0, [sp, #12]
 2302 0016 CDED040A 		vstr.32	s1, [sp, #16]
 2303 001a 8DED051A 		vstr.32	s2, [sp, #20]
 2304 001e CDED001A 		vstr.32	s3, [sp]
 2305 0022 8DED012A 		vstr.32	s4, [sp, #4]
 2306 0026 CDED022A 		vstr.32	s5, [sp, #8]
 346:Core/Src/FusionAhrs.c **** #define Q ahrs->quaternion.element
 347:Core/Src/FusionAhrs.c **** 
 348:Core/Src/FusionAhrs.c ****     // Calculate roll
 349:Core/Src/FusionAhrs.c ****     const float roll = atan2f(Q.w * Q.x + Q.y * Q.z, 0.5f - Q.y * Q.y - Q.x * Q.x);
ARM GAS  /var/folders/w9/l2kswtfn3fs2kslkvv5vg9sh0000gn/T//ccLXrTqc.s 			page 63


 2307              		.loc 1 349 5 is_stmt 1 view .LVU673
 2308              		.loc 1 349 32 is_stmt 0 view .LVU674
 2309 002a 90ED060A 		vldr.32	s0, [r0, #24]
 2310              		.loc 1 349 38 view .LVU675
 2311 002e D0ED077A 		vldr.32	s15, [r0, #28]
 2312              		.loc 1 349 35 view .LVU676
 2313 0032 20EE270A 		vmul.f32	s0, s0, s15
 2314              		.loc 1 349 44 view .LVU677
 2315 0036 90ED087A 		vldr.32	s14, [r0, #32]
 2316              		.loc 1 349 50 view .LVU678
 2317 003a D0ED096A 		vldr.32	s13, [r0, #36]
 2318              		.loc 1 349 47 view .LVU679
 2319 003e 67EE266A 		vmul.f32	s13, s14, s13
 2320              		.loc 1 349 65 view .LVU680
 2321 0042 27EE077A 		vmul.f32	s14, s14, s14
 2322              		.loc 1 349 59 view .LVU681
 2323 0046 F6EE000A 		vmov.f32	s1, #5.0e-1
 2324 004a 70EEC70A 		vsub.f32	s1, s1, s14
 2325              		.loc 1 349 77 view .LVU682
 2326 004e 67EEA77A 		vmul.f32	s15, s15, s15
 2327              		.loc 1 349 24 view .LVU683
 2328 0052 70EEE70A 		vsub.f32	s1, s1, s15
 2329 0056 30EE260A 		vadd.f32	s0, s0, s13
 2330 005a FFF7FEFF 		bl	atan2f
 2331              	.LVL78:
 2332              		.loc 1 349 24 view .LVU684
 2333 005e F0EE409A 		vmov.f32	s19, s0
 2334              	.LVL79:
 350:Core/Src/FusionAhrs.c **** 
 351:Core/Src/FusionAhrs.c ****     // Calculate magnetometer
 352:Core/Src/FusionAhrs.c ****     const float headingRadians = FusionDegreesToRadians(heading);
 2335              		.loc 1 352 5 is_stmt 1 view .LVU685
 2336              	.LBB106:
 2337              	.LBI106:
 127:Core/Inc/FusionMath.h ****     return degrees * ((float) M_PI / 180.0f);
 2338              		.loc 2 127 21 view .LVU686
 2339              	.LBB107:
 128:Core/Inc/FusionMath.h **** }
 2340              		.loc 2 128 5 view .LVU687
 128:Core/Inc/FusionMath.h **** }
 2341              		.loc 2 128 20 is_stmt 0 view .LVU688
 2342 0062 DFED1D7A 		vldr.32	s15, .L110
 2343 0066 28EE278A 		vmul.f32	s16, s16, s15
 2344              	.LVL80:
 128:Core/Inc/FusionMath.h **** }
 2345              		.loc 2 128 20 view .LVU689
 2346              	.LBE107:
 2347              	.LBE106:
 353:Core/Src/FusionAhrs.c ****     const float sinHeadingRadians = sinf(headingRadians);
 2348              		.loc 1 353 5 is_stmt 1 view .LVU690
 2349              		.loc 1 353 37 is_stmt 0 view .LVU691
 2350 006a B0EE480A 		vmov.f32	s0, s16
 2351              	.LVL81:
 2352              		.loc 1 353 37 view .LVU692
 2353 006e FFF7FEFF 		bl	sinf
 2354              	.LVL82:
 2355 0072 B0EE409A 		vmov.f32	s18, s0
ARM GAS  /var/folders/w9/l2kswtfn3fs2kslkvv5vg9sh0000gn/T//ccLXrTqc.s 			page 64


 2356              	.LVL83:
 354:Core/Src/FusionAhrs.c ****     const FusionVector magnetometer = {.axis = {
 2357              		.loc 1 354 5 is_stmt 1 view .LVU693
 355:Core/Src/FusionAhrs.c ****             .x = cosf(headingRadians),
 2358              		.loc 1 355 18 is_stmt 0 view .LVU694
 2359 0076 B0EE480A 		vmov.f32	s0, s16
 2360              	.LVL84:
 2361              		.loc 1 355 18 view .LVU695
 2362 007a FFF7FEFF 		bl	cosf
 2363              	.LVL85:
 2364 007e F0EE408A 		vmov.f32	s17, s0
 354:Core/Src/FusionAhrs.c ****     const FusionVector magnetometer = {.axis = {
 2365              		.loc 1 354 24 view .LVU696
 2366 0082 8DED070A 		vstr.32	s0, [sp, #28]
 356:Core/Src/FusionAhrs.c ****             .y = -1.0f * cosf(roll) * sinHeadingRadians,
 2367              		.loc 1 356 26 view .LVU697
 2368 0086 B0EE690A 		vmov.f32	s0, s19
 2369 008a FFF7FEFF 		bl	cosf
 2370              	.LVL86:
 2371              		.loc 1 356 37 discriminator 1 view .LVU698
 2372 008e 20EE498A 		vnmul.f32	s16, s0, s18
 2373              	.LVL87:
 354:Core/Src/FusionAhrs.c ****     const FusionVector magnetometer = {.axis = {
 2374              		.loc 1 354 24 view .LVU699
 2375 0092 8DED088A 		vstr.32	s16, [sp, #32]
 357:Core/Src/FusionAhrs.c ****             .z = sinHeadingRadians * sinf(roll),
 2376              		.loc 1 357 38 view .LVU700
 2377 0096 B0EE690A 		vmov.f32	s0, s19
 2378 009a FFF7FEFF 		bl	sinf
 2379              	.LVL88:
 2380              		.loc 1 357 36 discriminator 1 view .LVU701
 2381 009e 20EE094A 		vmul.f32	s8, s0, s18
 354:Core/Src/FusionAhrs.c ****             .x = cosf(headingRadians),
 2382              		.loc 1 354 24 view .LVU702
 2383 00a2 8DED094A 		vstr.32	s8, [sp, #36]
 358:Core/Src/FusionAhrs.c ****     }};
 359:Core/Src/FusionAhrs.c **** 
 360:Core/Src/FusionAhrs.c ****     // Update AHRS algorithm
 361:Core/Src/FusionAhrs.c ****     FusionAhrsUpdate(ahrs, gyroscope, accelerometer, magnetometer, deltaTime);
 2384              		.loc 1 361 5 is_stmt 1 view .LVU703
 2385 00a6 F0EE4A4A 		vmov.f32	s9, s20
 2386 00aa B0EE683A 		vmov.f32	s6, s17
 2387 00ae F0EE483A 		vmov.f32	s7, s16
 2388 00b2 DDED001A 		vldr.32	s3, [sp]
 2389 00b6 9DED012A 		vldr.32	s4, [sp, #4]
 2390 00ba DDED022A 		vldr.32	s5, [sp, #8]
 2391 00be 9DED030A 		vldr.32	s0, [sp, #12]
 2392 00c2 DDED040A 		vldr.32	s1, [sp, #16]
 2393 00c6 9DED051A 		vldr.32	s2, [sp, #20]
 2394 00ca 2046     		mov	r0, r4
 2395 00cc FFF7FEFF 		bl	FusionAhrsUpdate
 2396              	.LVL89:
 362:Core/Src/FusionAhrs.c **** #undef Q
 363:Core/Src/FusionAhrs.c **** }
 2397              		.loc 1 363 1 is_stmt 0 view .LVU704
 2398 00d0 0AB0     		add	sp, sp, #40
 2399              	.LCFI48:
ARM GAS  /var/folders/w9/l2kswtfn3fs2kslkvv5vg9sh0000gn/T//ccLXrTqc.s 			page 65


 2400              		.cfi_def_cfa_offset 32
 2401              		@ sp needed
 2402 00d2 BDEC068B 		vldm	sp!, {d8-d10}
 2403              	.LCFI49:
 2404              		.cfi_restore 84
 2405              		.cfi_restore 85
 2406              		.cfi_restore 82
 2407              		.cfi_restore 83
 2408              		.cfi_restore 80
 2409              		.cfi_restore 81
 2410              		.cfi_def_cfa_offset 8
 2411              	.LVL90:
 2412              		.loc 1 363 1 view .LVU705
 2413 00d6 10BD     		pop	{r4, pc}
 2414              	.LVL91:
 2415              	.L111:
 2416              		.loc 1 363 1 view .LVU706
 2417              		.align	2
 2418              	.L110:
 2419 00d8 35FA8E3C 		.word	1016003125
 2420              		.cfi_endproc
 2421              	.LFE31:
 2423              		.section	.text.FusionAhrsGetQuaternion,"ax",%progbits
 2424              		.align	1
 2425              		.global	FusionAhrsGetQuaternion
 2426              		.syntax unified
 2427              		.thumb
 2428              		.thumb_func
 2430              	FusionAhrsGetQuaternion:
 2431              	.LVL92:
 2432              	.LFB32:
 364:Core/Src/FusionAhrs.c **** 
 365:Core/Src/FusionAhrs.c **** /**
 366:Core/Src/FusionAhrs.c ****  * @brief Returns the quaternion describing the sensor relative to the Earth.
 367:Core/Src/FusionAhrs.c ****  * @param ahrs AHRS algorithm structure.
 368:Core/Src/FusionAhrs.c ****  * @return Quaternion describing the sensor relative to the Earth.
 369:Core/Src/FusionAhrs.c ****  */
 370:Core/Src/FusionAhrs.c **** FusionQuaternion FusionAhrsGetQuaternion(const FusionAhrs *const ahrs) {
 2433              		.loc 1 370 72 is_stmt 1 view -0
 2434              		.cfi_startproc
 2435              		@ args = 0, pretend = 0, frame = 32
 2436              		@ frame_needed = 0, uses_anonymous_args = 0
 2437              		@ link register save eliminated.
 2438              		.loc 1 370 72 is_stmt 0 view .LVU708
 2439 0000 88B0     		sub	sp, sp, #32
 2440              	.LCFI50:
 2441              		.cfi_def_cfa_offset 32
 371:Core/Src/FusionAhrs.c ****     return ahrs->quaternion;
 2442              		.loc 1 371 5 is_stmt 1 view .LVU709
 2443              		.loc 1 371 16 is_stmt 0 view .LVU710
 2444 0002 1830     		adds	r0, r0, #24
 2445              	.LVL93:
 2446              		.loc 1 371 16 view .LVU711
 2447 0004 0FC8     		ldm	r0, {r0, r1, r2, r3}
 2448              	.LVL94:
 2449              		.loc 1 371 16 view .LVU712
 2450 0006 0DF1200C 		add	ip, sp, #32
ARM GAS  /var/folders/w9/l2kswtfn3fs2kslkvv5vg9sh0000gn/T//ccLXrTqc.s 			page 66


 2451 000a 0CE90F00 		stmdb	ip, {r0, r1, r2, r3}
 372:Core/Src/FusionAhrs.c **** }
 2452              		.loc 1 372 1 view .LVU713
 2453 000e 9DED040A 		vldr.32	s0, [sp, #16]
 2454 0012 DDED050A 		vldr.32	s1, [sp, #20]
 2455 0016 9DED061A 		vldr.32	s2, [sp, #24]
 2456 001a DDED071A 		vldr.32	s3, [sp, #28]
 2457 001e 08B0     		add	sp, sp, #32
 2458              	.LCFI51:
 2459              		.cfi_def_cfa_offset 0
 2460              		@ sp needed
 2461 0020 7047     		bx	lr
 2462              		.cfi_endproc
 2463              	.LFE32:
 2465              		.section	.text.FusionAhrsSetQuaternion,"ax",%progbits
 2466              		.align	1
 2467              		.global	FusionAhrsSetQuaternion
 2468              		.syntax unified
 2469              		.thumb
 2470              		.thumb_func
 2472              	FusionAhrsSetQuaternion:
 2473              	.LVL95:
 2474              	.LFB33:
 373:Core/Src/FusionAhrs.c **** 
 374:Core/Src/FusionAhrs.c **** /**
 375:Core/Src/FusionAhrs.c ****  * @brief Sets the quaternion describing the sensor relative to the Earth.
 376:Core/Src/FusionAhrs.c ****  * @param ahrs AHRS algorithm structure.
 377:Core/Src/FusionAhrs.c ****  * @param quaternion Quaternion describing the sensor relative to the Earth.
 378:Core/Src/FusionAhrs.c ****  */
 379:Core/Src/FusionAhrs.c **** void FusionAhrsSetQuaternion(FusionAhrs *const ahrs, const FusionQuaternion quaternion) {
 2475              		.loc 1 379 89 is_stmt 1 view -0
 2476              		.cfi_startproc
 2477              		@ args = 0, pretend = 0, frame = 16
 2478              		@ frame_needed = 0, uses_anonymous_args = 0
 2479              		@ link register save eliminated.
 2480              		.loc 1 379 89 is_stmt 0 view .LVU715
 2481 0000 84B0     		sub	sp, sp, #16
 2482              	.LCFI52:
 2483              		.cfi_def_cfa_offset 16
 2484 0002 8DED000A 		vstr.32	s0, [sp]
 2485 0006 CDED010A 		vstr.32	s1, [sp, #4]
 2486 000a 8DED021A 		vstr.32	s2, [sp, #8]
 2487 000e CDED031A 		vstr.32	s3, [sp, #12]
 380:Core/Src/FusionAhrs.c ****     ahrs->quaternion = quaternion;
 2488              		.loc 1 380 5 is_stmt 1 view .LVU716
 2489              		.loc 1 380 22 is_stmt 0 view .LVU717
 2490 0012 00F1180C 		add	ip, r0, #24
 2491 0016 04AB     		add	r3, sp, #16
 2492 0018 13E90F00 		ldmdb	r3, {r0, r1, r2, r3}
 2493              	.LVL96:
 2494              		.loc 1 380 22 view .LVU718
 2495 001c 8CE80F00 		stm	ip, {r0, r1, r2, r3}
 381:Core/Src/FusionAhrs.c **** }
 2496              		.loc 1 381 1 view .LVU719
 2497 0020 04B0     		add	sp, sp, #16
 2498              	.LCFI53:
 2499              		.cfi_def_cfa_offset 0
ARM GAS  /var/folders/w9/l2kswtfn3fs2kslkvv5vg9sh0000gn/T//ccLXrTqc.s 			page 67


 2500              		@ sp needed
 2501 0022 7047     		bx	lr
 2502              		.cfi_endproc
 2503              	.LFE33:
 2505              		.section	.text.FusionAhrsGetLinearAcceleration,"ax",%progbits
 2506              		.align	1
 2507              		.global	FusionAhrsGetLinearAcceleration
 2508              		.syntax unified
 2509              		.thumb
 2510              		.thumb_func
 2512              	FusionAhrsGetLinearAcceleration:
 2513              	.LVL97:
 2514              	.LFB34:
 382:Core/Src/FusionAhrs.c **** 
 383:Core/Src/FusionAhrs.c **** /**
 384:Core/Src/FusionAhrs.c ****  * @brief Returns the linear acceleration measurement equal to the accelerometer
 385:Core/Src/FusionAhrs.c ****  * measurement with the 1 g of gravity removed.
 386:Core/Src/FusionAhrs.c ****  * @param ahrs AHRS algorithm structure.
 387:Core/Src/FusionAhrs.c ****  * @return Linear acceleration measurement in g.
 388:Core/Src/FusionAhrs.c ****  */
 389:Core/Src/FusionAhrs.c **** FusionVector FusionAhrsGetLinearAcceleration(const FusionAhrs *const ahrs) {
 2515              		.loc 1 389 76 is_stmt 1 view -0
 2516              		.cfi_startproc
 2517              		@ args = 0, pretend = 0, frame = 88
 2518              		@ frame_needed = 0, uses_anonymous_args = 0
 2519              		@ link register save eliminated.
 2520              		.loc 1 389 76 is_stmt 0 view .LVU721
 2521 0000 96B0     		sub	sp, sp, #88
 2522              	.LCFI54:
 2523              		.cfi_def_cfa_offset 88
 390:Core/Src/FusionAhrs.c **** #define Q ahrs->quaternion.element
 391:Core/Src/FusionAhrs.c **** 
 392:Core/Src/FusionAhrs.c ****     // Calculate gravity in the sensor coordinate frame
 393:Core/Src/FusionAhrs.c ****     const FusionVector gravity = {.axis = {
 2524              		.loc 1 393 5 is_stmt 1 view .LVU722
 394:Core/Src/FusionAhrs.c ****             .x = 2.0f * (Q.x * Q.z - Q.w * Q.y),
 2525              		.loc 1 394 27 is_stmt 0 view .LVU723
 2526 0002 D0ED075A 		vldr.32	s11, [r0, #28]
 2527              		.loc 1 394 33 view .LVU724
 2528 0006 90ED096A 		vldr.32	s12, [r0, #36]
 2529              		.loc 1 394 30 view .LVU725
 2530 000a 65EE866A 		vmul.f32	s13, s11, s12
 2531              		.loc 1 394 39 view .LVU726
 2532 000e D0ED067A 		vldr.32	s15, [r0, #24]
 2533              		.loc 1 394 45 view .LVU727
 2534 0012 90ED087A 		vldr.32	s14, [r0, #32]
 2535              		.loc 1 394 42 view .LVU728
 2536 0016 27EE875A 		vmul.f32	s10, s15, s14
 2537              		.loc 1 394 36 view .LVU729
 2538 001a 76EEC56A 		vsub.f32	s13, s13, s10
 2539              		.loc 1 394 23 view .LVU730
 2540 001e 76EEA66A 		vadd.f32	s13, s13, s13
 393:Core/Src/FusionAhrs.c ****             .x = 2.0f * (Q.x * Q.z - Q.w * Q.y),
 2541              		.loc 1 393 24 view .LVU731
 2542 0022 CDED0A6A 		vstr.32	s13, [sp, #40]
 395:Core/Src/FusionAhrs.c ****             .y = 2.0f * (Q.y * Q.z + Q.w * Q.x),
 2543              		.loc 1 395 30 view .LVU732
ARM GAS  /var/folders/w9/l2kswtfn3fs2kslkvv5vg9sh0000gn/T//ccLXrTqc.s 			page 68


 2544 0026 26EE077A 		vmul.f32	s14, s12, s14
 2545              		.loc 1 395 42 view .LVU733
 2546 002a 65EEA75A 		vmul.f32	s11, s11, s15
 2547              		.loc 1 395 36 view .LVU734
 2548 002e 37EE257A 		vadd.f32	s14, s14, s11
 2549              		.loc 1 395 23 view .LVU735
 2550 0032 37EE077A 		vadd.f32	s14, s14, s14
 393:Core/Src/FusionAhrs.c ****             .x = 2.0f * (Q.x * Q.z - Q.w * Q.y),
 2551              		.loc 1 393 24 view .LVU736
 2552 0036 8DED0B7A 		vstr.32	s14, [sp, #44]
 396:Core/Src/FusionAhrs.c ****             .z = 2.0f * (Q.w * Q.w - 0.5f + Q.z * Q.z),
 2553              		.loc 1 396 30 view .LVU737
 2554 003a 67EEA77A 		vmul.f32	s15, s15, s15
 2555              		.loc 1 396 36 view .LVU738
 2556 003e F6EE005A 		vmov.f32	s11, #5.0e-1
 2557 0042 77EEE57A 		vsub.f32	s15, s15, s11
 2558              		.loc 1 396 49 view .LVU739
 2559 0046 26EE066A 		vmul.f32	s12, s12, s12
 2560              		.loc 1 396 43 view .LVU740
 2561 004a 77EE867A 		vadd.f32	s15, s15, s12
 2562              		.loc 1 396 23 view .LVU741
 2563 004e 77EEA77A 		vadd.f32	s15, s15, s15
 393:Core/Src/FusionAhrs.c ****             .x = 2.0f * (Q.x * Q.z - Q.w * Q.y),
 2564              		.loc 1 393 24 view .LVU742
 2565 0052 CDED0C7A 		vstr.32	s15, [sp, #48]
 397:Core/Src/FusionAhrs.c ****     }}; // third column of transposed rotation matrix
 398:Core/Src/FusionAhrs.c **** 
 399:Core/Src/FusionAhrs.c ****     // Remove gravity from accelerometer measurement
 400:Core/Src/FusionAhrs.c ****     switch (ahrs->settings.convention) {
 2566              		.loc 1 400 5 is_stmt 1 view .LVU743
 2567              		.loc 1 400 27 is_stmt 0 view .LVU744
 2568 0056 0378     		ldrb	r3, [r0]	@ zero_extendqisi2
 2569              		.loc 1 400 5 view .LVU745
 2570 0058 012B     		cmp	r3, #1
 2571 005a 22D9     		bls	.L117
 2572 005c 022B     		cmp	r3, #2
 2573 005e 48D1     		bne	.L123
 401:Core/Src/FusionAhrs.c ****         case FusionConventionNwu:
 402:Core/Src/FusionAhrs.c ****         case FusionConventionEnu: {
 403:Core/Src/FusionAhrs.c ****             return FusionVectorSubtract(ahrs->accelerometer, gravity);
 404:Core/Src/FusionAhrs.c ****         }
 405:Core/Src/FusionAhrs.c ****         case FusionConventionNed: {
 406:Core/Src/FusionAhrs.c ****             return FusionVectorAdd(ahrs->accelerometer, gravity);
 2574              		.loc 1 406 13 is_stmt 1 view .LVU746
 2575 0060 04AB     		add	r3, sp, #16
 2576 0062 2830     		adds	r0, r0, #40
 2577              	.LVL98:
 2578              		.loc 1 406 13 is_stmt 0 view .LVU747
 2579 0064 07C8     		ldm	r0, {r0, r1, r2}
 2580              	.LVL99:
 2581              		.loc 1 406 13 view .LVU748
 2582 0066 83E80700 		stm	r3, {r0, r1, r2}
 2583              	.LBB108:
 2584              	.LBI108:
 201:Core/Inc/FusionMath.h ****     const FusionVector result = {.axis = {
 2585              		.loc 2 201 28 is_stmt 1 view .LVU749
 2586              	.LBB109:
ARM GAS  /var/folders/w9/l2kswtfn3fs2kslkvv5vg9sh0000gn/T//ccLXrTqc.s 			page 69


 202:Core/Inc/FusionMath.h ****             .x = vectorA.axis.x + vectorB.axis.x,
 2587              		.loc 2 202 5 view .LVU750
 203:Core/Inc/FusionMath.h ****             .y = vectorA.axis.y + vectorB.axis.y,
 2588              		.loc 2 203 30 is_stmt 0 view .LVU751
 2589 006a 9DED046A 		vldr.32	s12, [sp, #16]
 203:Core/Inc/FusionMath.h ****             .y = vectorA.axis.y + vectorB.axis.y,
 2590              		.loc 2 203 33 view .LVU752
 2591 006e 76EE866A 		vadd.f32	s13, s13, s12
 202:Core/Inc/FusionMath.h ****             .x = vectorA.axis.x + vectorB.axis.x,
 2592              		.loc 2 202 24 view .LVU753
 2593 0072 CDED076A 		vstr.32	s13, [sp, #28]
 204:Core/Inc/FusionMath.h ****             .z = vectorA.axis.z + vectorB.axis.z,
 2594              		.loc 2 204 30 view .LVU754
 2595 0076 DDED056A 		vldr.32	s13, [sp, #20]
 204:Core/Inc/FusionMath.h ****             .z = vectorA.axis.z + vectorB.axis.z,
 2596              		.loc 2 204 33 view .LVU755
 2597 007a 37EE267A 		vadd.f32	s14, s14, s13
 202:Core/Inc/FusionMath.h ****             .x = vectorA.axis.x + vectorB.axis.x,
 2598              		.loc 2 202 24 view .LVU756
 2599 007e 8DED087A 		vstr.32	s14, [sp, #32]
 205:Core/Inc/FusionMath.h ****     }};
 2600              		.loc 2 205 30 view .LVU757
 2601 0082 9DED067A 		vldr.32	s14, [sp, #24]
 205:Core/Inc/FusionMath.h ****     }};
 2602              		.loc 2 205 33 view .LVU758
 2603 0086 77EE877A 		vadd.f32	s15, s15, s14
 202:Core/Inc/FusionMath.h ****             .x = vectorA.axis.x + vectorB.axis.x,
 2604              		.loc 2 202 24 view .LVU759
 2605 008a CDED097A 		vstr.32	s15, [sp, #36]
 207:Core/Inc/FusionMath.h **** }
 2606              		.loc 2 207 5 is_stmt 1 view .LVU760
 207:Core/Inc/FusionMath.h **** }
 2607              		.loc 2 207 12 is_stmt 0 view .LVU761
 2608 008e 13AB     		add	r3, sp, #76
 2609 0090 07AA     		add	r2, sp, #28
 2610 0092 07CA     		ldm	r2, {r0, r1, r2}
 2611 0094 83E80700 		stm	r3, {r0, r1, r2}
 2612 0098 0DF1340C 		add	ip, sp, #52
 2613 009c 8CE80700 		stm	ip, {r0, r1, r2}
 2614              	.LBE109:
 2615              	.LBE108:
 2616              		.loc 1 406 20 view .LVU762
 2617 00a0 1FE0     		b	.L120
 2618              	.LVL100:
 2619              	.L117:
 403:Core/Src/FusionAhrs.c ****         }
 2620              		.loc 1 403 13 is_stmt 1 view .LVU763
 2621 00a2 04AB     		add	r3, sp, #16
 2622 00a4 2830     		adds	r0, r0, #40
 2623              	.LVL101:
 403:Core/Src/FusionAhrs.c ****         }
 2624              		.loc 1 403 13 is_stmt 0 view .LVU764
 2625 00a6 07C8     		ldm	r0, {r0, r1, r2}
 2626              	.LVL102:
 403:Core/Src/FusionAhrs.c ****         }
 2627              		.loc 1 403 13 view .LVU765
 2628 00a8 83E80700 		stm	r3, {r0, r1, r2}
ARM GAS  /var/folders/w9/l2kswtfn3fs2kslkvv5vg9sh0000gn/T//ccLXrTqc.s 			page 70


 2629              	.LBB110:
 2630              	.LBI110:
 216:Core/Inc/FusionMath.h ****     const FusionVector result = {.axis = {
 2631              		.loc 2 216 28 is_stmt 1 view .LVU766
 2632              	.LBB111:
 217:Core/Inc/FusionMath.h ****             .x = vectorA.axis.x - vectorB.axis.x,
 2633              		.loc 2 217 5 view .LVU767
 218:Core/Inc/FusionMath.h ****             .y = vectorA.axis.y - vectorB.axis.y,
 2634              		.loc 2 218 30 is_stmt 0 view .LVU768
 2635 00ac 9DED046A 		vldr.32	s12, [sp, #16]
 218:Core/Inc/FusionMath.h ****             .y = vectorA.axis.y - vectorB.axis.y,
 2636              		.loc 2 218 33 view .LVU769
 2637 00b0 76EE666A 		vsub.f32	s13, s12, s13
 217:Core/Inc/FusionMath.h ****             .x = vectorA.axis.x - vectorB.axis.x,
 2638              		.loc 2 217 24 view .LVU770
 2639 00b4 CDED076A 		vstr.32	s13, [sp, #28]
 219:Core/Inc/FusionMath.h ****             .z = vectorA.axis.z - vectorB.axis.z,
 2640              		.loc 2 219 30 view .LVU771
 2641 00b8 DDED056A 		vldr.32	s13, [sp, #20]
 219:Core/Inc/FusionMath.h ****             .z = vectorA.axis.z - vectorB.axis.z,
 2642              		.loc 2 219 33 view .LVU772
 2643 00bc 36EEC77A 		vsub.f32	s14, s13, s14
 217:Core/Inc/FusionMath.h ****             .x = vectorA.axis.x - vectorB.axis.x,
 2644              		.loc 2 217 24 view .LVU773
 2645 00c0 8DED087A 		vstr.32	s14, [sp, #32]
 220:Core/Inc/FusionMath.h ****     }};
 2646              		.loc 2 220 30 view .LVU774
 2647 00c4 9DED067A 		vldr.32	s14, [sp, #24]
 220:Core/Inc/FusionMath.h ****     }};
 2648              		.loc 2 220 33 view .LVU775
 2649 00c8 77EE677A 		vsub.f32	s15, s14, s15
 217:Core/Inc/FusionMath.h ****             .x = vectorA.axis.x - vectorB.axis.x,
 2650              		.loc 2 217 24 view .LVU776
 2651 00cc CDED097A 		vstr.32	s15, [sp, #36]
 222:Core/Inc/FusionMath.h **** }
 2652              		.loc 2 222 5 is_stmt 1 view .LVU777
 222:Core/Inc/FusionMath.h **** }
 2653              		.loc 2 222 12 is_stmt 0 view .LVU778
 2654 00d0 10AB     		add	r3, sp, #64
 2655 00d2 07AA     		add	r2, sp, #28
 2656 00d4 07CA     		ldm	r2, {r0, r1, r2}
 2657 00d6 83E80700 		stm	r3, {r0, r1, r2}
 2658 00da 0DF1340C 		add	ip, sp, #52
 2659 00de 8CE80700 		stm	ip, {r0, r1, r2}
 2660              	.L120:
 222:Core/Inc/FusionMath.h **** }
 2661              		.loc 2 222 12 view .LVU779
 2662              	.LBE111:
 2663              	.LBE110:
 407:Core/Src/FusionAhrs.c ****         }
 408:Core/Src/FusionAhrs.c ****     }
 409:Core/Src/FusionAhrs.c ****     return FUSION_VECTOR_ZERO; // avoid compiler warning
 410:Core/Src/FusionAhrs.c **** #undef Q
 411:Core/Src/FusionAhrs.c **** }
 2664              		.loc 1 411 1 view .LVU780
 2665 00e2 9DED0D0A 		vldr.32	s0, [sp, #52]
 2666 00e6 DDED0E0A 		vldr.32	s1, [sp, #56]
ARM GAS  /var/folders/w9/l2kswtfn3fs2kslkvv5vg9sh0000gn/T//ccLXrTqc.s 			page 71


 2667 00ea 9DED0F1A 		vldr.32	s2, [sp, #60]
 2668 00ee 16B0     		add	sp, sp, #88
 2669              	.LCFI55:
 2670              		.cfi_remember_state
 2671              		.cfi_def_cfa_offset 0
 2672              		@ sp needed
 2673 00f0 7047     		bx	lr
 2674              	.LVL103:
 2675              	.L123:
 2676              	.LCFI56:
 2677              		.cfi_restore_state
 409:Core/Src/FusionAhrs.c **** #undef Q
 2678              		.loc 1 409 5 is_stmt 1 view .LVU781
 409:Core/Src/FusionAhrs.c **** #undef Q
 2679              		.loc 1 409 12 is_stmt 0 view .LVU782
 2680 00f2 0023     		movs	r3, #0
 2681 00f4 0D93     		str	r3, [sp, #52]	@ float
 2682 00f6 0E93     		str	r3, [sp, #56]	@ float
 2683 00f8 0F93     		str	r3, [sp, #60]	@ float
 2684 00fa F2E7     		b	.L120
 2685              		.cfi_endproc
 2686              	.LFE34:
 2688              		.section	.text.FusionAhrsGetEarthAcceleration,"ax",%progbits
 2689              		.align	1
 2690              		.global	FusionAhrsGetEarthAcceleration
 2691              		.syntax unified
 2692              		.thumb
 2693              		.thumb_func
 2695              	FusionAhrsGetEarthAcceleration:
 2696              	.LVL104:
 2697              	.LFB35:
 412:Core/Src/FusionAhrs.c **** 
 413:Core/Src/FusionAhrs.c **** /**
 414:Core/Src/FusionAhrs.c ****  * @brief Returns the Earth acceleration measurement equal to accelerometer
 415:Core/Src/FusionAhrs.c ****  * measurement in the Earth coordinate frame with the 1 g of gravity removed.
 416:Core/Src/FusionAhrs.c ****  * @param ahrs AHRS algorithm structure.
 417:Core/Src/FusionAhrs.c ****  * @return Earth acceleration measurement in g.
 418:Core/Src/FusionAhrs.c ****  */
 419:Core/Src/FusionAhrs.c **** FusionVector FusionAhrsGetEarthAcceleration(const FusionAhrs *const ahrs) {
 2698              		.loc 1 419 75 is_stmt 1 view -0
 2699              		.cfi_startproc
 2700              		@ args = 0, pretend = 0, frame = 40
 2701              		@ frame_needed = 0, uses_anonymous_args = 0
 2702              		@ link register save eliminated.
 2703              		.loc 1 419 75 is_stmt 0 view .LVU784
 2704 0000 8AB0     		sub	sp, sp, #40
 2705              	.LCFI57:
 2706              		.cfi_def_cfa_offset 40
 420:Core/Src/FusionAhrs.c **** #define Q ahrs->quaternion.element
 421:Core/Src/FusionAhrs.c **** #define A ahrs->accelerometer.axis
 422:Core/Src/FusionAhrs.c **** 
 423:Core/Src/FusionAhrs.c ****     // Calculate accelerometer measurement in the Earth coordinate frame
 424:Core/Src/FusionAhrs.c ****     const float qwqw = Q.w * Q.w; // calculate common terms to avoid repeated operations
 2707              		.loc 1 424 5 is_stmt 1 view .LVU785
 2708              		.loc 1 424 25 is_stmt 0 view .LVU786
 2709 0002 D0ED067A 		vldr.32	s15, [r0, #24]
 2710              		.loc 1 424 17 view .LVU787
ARM GAS  /var/folders/w9/l2kswtfn3fs2kslkvv5vg9sh0000gn/T//ccLXrTqc.s 			page 72


 2711 0006 67EEA75A 		vmul.f32	s11, s15, s15
 2712              	.LVL105:
 425:Core/Src/FusionAhrs.c ****     const float qwqx = Q.w * Q.x;
 2713              		.loc 1 425 5 is_stmt 1 view .LVU788
 2714              		.loc 1 425 31 is_stmt 0 view .LVU789
 2715 000a 90ED077A 		vldr.32	s14, [r0, #28]
 2716              		.loc 1 425 17 view .LVU790
 2717 000e 67EE873A 		vmul.f32	s7, s15, s14
 2718              	.LVL106:
 426:Core/Src/FusionAhrs.c ****     const float qwqy = Q.w * Q.y;
 2719              		.loc 1 426 5 is_stmt 1 view .LVU791
 2720              		.loc 1 426 31 is_stmt 0 view .LVU792
 2721 0012 90ED086A 		vldr.32	s12, [r0, #32]
 2722              		.loc 1 426 17 view .LVU793
 2723 0016 67EE861A 		vmul.f32	s3, s15, s12
 2724              	.LVL107:
 427:Core/Src/FusionAhrs.c ****     const float qwqz = Q.w * Q.z;
 2725              		.loc 1 427 5 is_stmt 1 view .LVU794
 2726              		.loc 1 427 31 is_stmt 0 view .LVU795
 2727 001a D0ED094A 		vldr.32	s9, [r0, #36]
 2728              		.loc 1 427 17 view .LVU796
 2729 001e 67EEA47A 		vmul.f32	s15, s15, s9
 2730              	.LVL108:
 428:Core/Src/FusionAhrs.c ****     const float qxqy = Q.x * Q.y;
 2731              		.loc 1 428 5 is_stmt 1 view .LVU797
 2732              		.loc 1 428 17 is_stmt 0 view .LVU798
 2733 0022 27EE061A 		vmul.f32	s2, s14, s12
 2734              	.LVL109:
 429:Core/Src/FusionAhrs.c ****     const float qxqz = Q.x * Q.z;
 2735              		.loc 1 429 5 is_stmt 1 view .LVU799
 2736              		.loc 1 429 17 is_stmt 0 view .LVU800
 2737 0026 27EE243A 		vmul.f32	s6, s14, s9
 2738              	.LVL110:
 430:Core/Src/FusionAhrs.c ****     const float qyqz = Q.y * Q.z;
 2739              		.loc 1 430 5 is_stmt 1 view .LVU801
 2740              		.loc 1 430 17 is_stmt 0 view .LVU802
 2741 002a 26EE242A 		vmul.f32	s4, s12, s9
 2742              	.LVL111:
 431:Core/Src/FusionAhrs.c ****     FusionVector accelerometer = {.axis = {
 2743              		.loc 1 431 5 is_stmt 1 view .LVU803
 432:Core/Src/FusionAhrs.c ****             .x = 2.0f * ((qwqw - 0.5f + Q.x * Q.x) * A.x + (qxqy - qwqz) * A.y + (qxqz + qwqy) * A.
 2744              		.loc 1 432 32 is_stmt 0 view .LVU804
 2745 002e F6EE006A 		vmov.f32	s13, #5.0e-1
 2746 0032 75EEE65A 		vsub.f32	s11, s11, s13
 2747              	.LVL112:
 2748              		.loc 1 432 45 view .LVU805
 2749 0036 27EE077A 		vmul.f32	s14, s14, s14
 2750              		.loc 1 432 39 view .LVU806
 2751 003a 35EE877A 		vadd.f32	s14, s11, s14
 2752              		.loc 1 432 55 view .LVU807
 2753 003e D0ED0A6A 		vldr.32	s13, [r0, #40]
 2754              		.loc 1 432 52 view .LVU808
 2755 0042 27EE267A 		vmul.f32	s14, s14, s13
 2756              		.loc 1 432 66 view .LVU809
 2757 0046 31EE675A 		vsub.f32	s10, s2, s15
 2758              		.loc 1 432 77 view .LVU810
 2759 004a 90ED0B4A 		vldr.32	s8, [r0, #44]
ARM GAS  /var/folders/w9/l2kswtfn3fs2kslkvv5vg9sh0000gn/T//ccLXrTqc.s 			page 73


 2760              		.loc 1 432 74 view .LVU811
 2761 004e 25EE045A 		vmul.f32	s10, s10, s8
 2762              		.loc 1 432 58 view .LVU812
 2763 0052 37EE057A 		vadd.f32	s14, s14, s10
 2764              		.loc 1 432 88 view .LVU813
 2765 0056 71EE832A 		vadd.f32	s5, s3, s6
 2766              		.loc 1 432 99 view .LVU814
 2767 005a 90ED0C5A 		vldr.32	s10, [r0, #48]
 2768              		.loc 1 432 96 view .LVU815
 2769 005e 62EE852A 		vmul.f32	s5, s5, s10
 2770              		.loc 1 432 80 view .LVU816
 2771 0062 37EE227A 		vadd.f32	s14, s14, s5
 2772              		.loc 1 432 23 view .LVU817
 2773 0066 37EE077A 		vadd.f32	s14, s14, s14
 431:Core/Src/FusionAhrs.c ****     FusionVector accelerometer = {.axis = {
 2774              		.loc 1 431 18 view .LVU818
 2775 006a 8DED047A 		vstr.32	s14, [sp, #16]
 433:Core/Src/FusionAhrs.c ****             .y = 2.0f * ((qxqy + qwqz) * A.x + (qwqw - 0.5f + Q.y * Q.y) * A.y + (qyqz - qwqx) * A.
 2776              		.loc 1 433 32 view .LVU819
 2777 006e 77EE817A 		vadd.f32	s15, s15, s2
 2778              	.LVL113:
 2779              		.loc 1 433 40 view .LVU820
 2780 0072 66EEA77A 		vmul.f32	s15, s13, s15
 2781              		.loc 1 433 67 view .LVU821
 2782 0076 26EE066A 		vmul.f32	s12, s12, s12
 2783              		.loc 1 433 61 view .LVU822
 2784 007a 35EE866A 		vadd.f32	s12, s11, s12
 2785              		.loc 1 433 74 view .LVU823
 2786 007e 24EE066A 		vmul.f32	s12, s8, s12
 2787              		.loc 1 433 46 view .LVU824
 2788 0082 77EE867A 		vadd.f32	s15, s15, s12
 2789              		.loc 1 433 88 view .LVU825
 2790 0086 32EE637A 		vsub.f32	s14, s4, s7
 2791              		.loc 1 433 96 view .LVU826
 2792 008a 25EE077A 		vmul.f32	s14, s10, s14
 2793              		.loc 1 433 80 view .LVU827
 2794 008e 77EE877A 		vadd.f32	s15, s15, s14
 2795              		.loc 1 433 23 view .LVU828
 2796 0092 77EEA77A 		vadd.f32	s15, s15, s15
 431:Core/Src/FusionAhrs.c ****     FusionVector accelerometer = {.axis = {
 2797              		.loc 1 431 18 view .LVU829
 2798 0096 CDED057A 		vstr.32	s15, [sp, #20]
 434:Core/Src/FusionAhrs.c ****             .z = 2.0f * ((qxqz - qwqy) * A.x + (qyqz + qwqx) * A.y + (qwqw - 0.5f + Q.z * Q.z) * A.
 2799              		.loc 1 434 32 view .LVU830
 2800 009a 33EE613A 		vsub.f32	s6, s6, s3
 2801              	.LVL114:
 2802              		.loc 1 434 40 view .LVU831
 2803 009e 66EE836A 		vmul.f32	s13, s13, s6
 2804              		.loc 1 434 54 view .LVU832
 2805 00a2 73EE823A 		vadd.f32	s7, s7, s4
 2806              	.LVL115:
 2807              		.loc 1 434 62 view .LVU833
 2808 00a6 24EE234A 		vmul.f32	s8, s8, s7
 2809              		.loc 1 434 46 view .LVU834
 2810 00aa 76EE846A 		vadd.f32	s13, s13, s8
 2811              		.loc 1 434 89 view .LVU835
 2812 00ae 64EEA47A 		vmul.f32	s15, s9, s9
ARM GAS  /var/folders/w9/l2kswtfn3fs2kslkvv5vg9sh0000gn/T//ccLXrTqc.s 			page 74


 2813              		.loc 1 434 83 view .LVU836
 2814 00b2 75EEA75A 		vadd.f32	s11, s11, s15
 2815              		.loc 1 434 96 view .LVU837
 2816 00b6 25EE255A 		vmul.f32	s10, s10, s11
 2817              		.loc 1 434 68 view .LVU838
 2818 00ba 76EE856A 		vadd.f32	s13, s13, s10
 2819              		.loc 1 434 23 view .LVU839
 2820 00be 76EEA66A 		vadd.f32	s13, s13, s13
 431:Core/Src/FusionAhrs.c ****             .x = 2.0f * ((qwqw - 0.5f + Q.x * Q.x) * A.x + (qxqy - qwqz) * A.y + (qxqz + qwqy) * A.
 2821              		.loc 1 431 18 view .LVU840
 2822 00c2 CDED066A 		vstr.32	s13, [sp, #24]
 435:Core/Src/FusionAhrs.c ****     }}; // rotation matrix multiplied with the accelerometer
 436:Core/Src/FusionAhrs.c **** 
 437:Core/Src/FusionAhrs.c ****     // Remove gravity from accelerometer measurement
 438:Core/Src/FusionAhrs.c ****     switch (ahrs->settings.convention) {
 2823              		.loc 1 438 5 is_stmt 1 view .LVU841
 2824              		.loc 1 438 27 is_stmt 0 view .LVU842
 2825 00c6 0378     		ldrb	r3, [r0]	@ zero_extendqisi2
 2826              		.loc 1 438 5 view .LVU843
 2827 00c8 012B     		cmp	r3, #1
 2828 00ca 08D9     		bls	.L125
 2829 00cc 022B     		cmp	r3, #2
 2830 00ce 0CD1     		bne	.L127
 439:Core/Src/FusionAhrs.c ****         case FusionConventionNwu:
 440:Core/Src/FusionAhrs.c ****         case FusionConventionEnu:
 441:Core/Src/FusionAhrs.c ****             accelerometer.axis.z -= 1.0f;
 442:Core/Src/FusionAhrs.c ****             break;
 443:Core/Src/FusionAhrs.c ****         case FusionConventionNed:
 444:Core/Src/FusionAhrs.c ****             accelerometer.axis.z += 1.0f;
 2831              		.loc 1 444 13 is_stmt 1 view .LVU844
 2832              		.loc 1 444 34 is_stmt 0 view .LVU845
 2833 00d0 F7EE007A 		vmov.f32	s15, #1.0e+0
 2834 00d4 76EEA76A 		vadd.f32	s13, s13, s15
 2835 00d8 CDED066A 		vstr.32	s13, [sp, #24]
 445:Core/Src/FusionAhrs.c ****             break;
 2836              		.loc 1 445 13 is_stmt 1 view .LVU846
 2837 00dc 05E0     		b	.L127
 2838              	.L125:
 441:Core/Src/FusionAhrs.c ****             break;
 2839              		.loc 1 441 13 view .LVU847
 441:Core/Src/FusionAhrs.c ****             break;
 2840              		.loc 1 441 34 is_stmt 0 view .LVU848
 2841 00de F7EE007A 		vmov.f32	s15, #1.0e+0
 2842 00e2 76EEE76A 		vsub.f32	s13, s13, s15
 2843 00e6 CDED066A 		vstr.32	s13, [sp, #24]
 442:Core/Src/FusionAhrs.c ****         case FusionConventionNed:
 2844              		.loc 1 442 13 is_stmt 1 view .LVU849
 2845              	.L127:
 446:Core/Src/FusionAhrs.c ****     }
 447:Core/Src/FusionAhrs.c ****     return accelerometer;
 2846              		.loc 1 447 5 view .LVU850
 2847              		.loc 1 447 12 is_stmt 0 view .LVU851
 2848 00ea 04AB     		add	r3, sp, #16
 2849 00ec 93E80700 		ldm	r3, {r0, r1, r2}
 2850              	.LVL116:
 2851              		.loc 1 447 12 view .LVU852
 2852 00f0 0AAB     		add	r3, sp, #40
ARM GAS  /var/folders/w9/l2kswtfn3fs2kslkvv5vg9sh0000gn/T//ccLXrTqc.s 			page 75


 2853 00f2 03E90700 		stmdb	r3, {r0, r1, r2}
 448:Core/Src/FusionAhrs.c **** #undef Q
 449:Core/Src/FusionAhrs.c **** #undef A
 450:Core/Src/FusionAhrs.c **** }
 2854              		.loc 1 450 1 view .LVU853
 2855 00f6 9DED070A 		vldr.32	s0, [sp, #28]
 2856 00fa DDED080A 		vldr.32	s1, [sp, #32]
 2857 00fe 9DED091A 		vldr.32	s2, [sp, #36]
 2858              	.LVL117:
 2859              		.loc 1 450 1 view .LVU854
 2860 0102 0AB0     		add	sp, sp, #40
 2861              	.LCFI58:
 2862              		.cfi_def_cfa_offset 0
 2863              		@ sp needed
 2864 0104 7047     		bx	lr
 2865              		.cfi_endproc
 2866              	.LFE35:
 2868              		.section	.text.FusionAhrsGetInternalStates,"ax",%progbits
 2869              		.align	1
 2870              		.global	FusionAhrsGetInternalStates
 2871              		.syntax unified
 2872              		.thumb
 2873              		.thumb_func
 2875              	FusionAhrsGetInternalStates:
 2876              	.LVL118:
 2877              	.LFB36:
 451:Core/Src/FusionAhrs.c **** 
 452:Core/Src/FusionAhrs.c **** /**
 453:Core/Src/FusionAhrs.c ****  * @brief Returns the AHRS algorithm internal states.
 454:Core/Src/FusionAhrs.c ****  * @param ahrs AHRS algorithm structure.
 455:Core/Src/FusionAhrs.c ****  * @return AHRS algorithm internal states.
 456:Core/Src/FusionAhrs.c ****  */
 457:Core/Src/FusionAhrs.c **** FusionAhrsInternalStates FusionAhrsGetInternalStates(const FusionAhrs *const ahrs) {
 2878              		.loc 1 457 84 is_stmt 1 view -0
 2879              		.cfi_startproc
 2880              		@ args = 0, pretend = 0, frame = 0
 2881              		@ frame_needed = 0, uses_anonymous_args = 0
 2882              		.loc 1 457 84 is_stmt 0 view .LVU856
 2883 0000 38B5     		push	{r3, r4, r5, lr}
 2884              	.LCFI59:
 2885              		.cfi_def_cfa_offset 16
 2886              		.cfi_offset 3, -16
 2887              		.cfi_offset 4, -12
 2888              		.cfi_offset 5, -8
 2889              		.cfi_offset 14, -4
 2890 0002 0546     		mov	r5, r0
 2891 0004 0C46     		mov	r4, r1
 458:Core/Src/FusionAhrs.c ****     const FusionAhrsInternalStates internalStates = {
 2892              		.loc 1 458 5 is_stmt 1 view .LVU857
 459:Core/Src/FusionAhrs.c ****             .accelerationError = FusionRadiansToDegrees(FusionAsin(2.0f * FusionVectorMagnitude(ahr
 2893              		.loc 1 459 75 is_stmt 0 view .LVU858
 2894 0006 91ED110A 		vldr.32	s0, [r1, #68]
 2895 000a D1ED120A 		vldr.32	s1, [r1, #72]
 2896 000e 91ED131A 		vldr.32	s2, [r1, #76]
 2897 0012 FFF7FEFF 		bl	FusionVectorMagnitude
 2898              	.LVL119:
 2899              		.loc 1 459 57 discriminator 1 view .LVU859
ARM GAS  /var/folders/w9/l2kswtfn3fs2kslkvv5vg9sh0000gn/T//ccLXrTqc.s 			page 76


 2900 0016 30EE000A 		vadd.f32	s0, s0, s0
 2901 001a FFF7FEFF 		bl	FusionAsin
 2902              	.LVL120:
 2903              	.LBB112:
 2904              	.LBI112:
 136:Core/Inc/FusionMath.h ****     return radians * (180.0f / (float) M_PI);
 2905              		.loc 2 136 21 is_stmt 1 view .LVU860
 2906              	.LBB113:
 137:Core/Inc/FusionMath.h **** }
 2907              		.loc 2 137 5 view .LVU861
 137:Core/Inc/FusionMath.h **** }
 2908              		.loc 2 137 20 is_stmt 0 view .LVU862
 2909 001e DFED217A 		vldr.32	s15, .L135
 2910 0022 20EE270A 		vmul.f32	s0, s0, s15
 2911              	.LVL121:
 137:Core/Inc/FusionMath.h **** }
 2912              		.loc 2 137 20 view .LVU863
 2913              	.LBE113:
 2914              	.LBE112:
 458:Core/Src/FusionAhrs.c ****             .accelerationError = FusionRadiansToDegrees(FusionAsin(2.0f * FusionVectorMagnitude(ahr
 2915              		.loc 1 458 36 view .LVU864
 2916 0026 85ED000A 		vstr.32	s0, [r5]
 460:Core/Src/FusionAhrs.c ****             .accelerometerIgnored = ahrs->accelerometerIgnored,
 2917              		.loc 1 460 41 view .LVU865
 2918 002a 94F85C30 		ldrb	r3, [r4, #92]	@ zero_extendqisi2
 458:Core/Src/FusionAhrs.c ****             .accelerationError = FusionRadiansToDegrees(FusionAsin(2.0f * FusionVectorMagnitude(ahr
 2919              		.loc 1 458 36 view .LVU866
 2920 002e 2B71     		strb	r3, [r5, #4]
 461:Core/Src/FusionAhrs.c ****             .accelerationRecoveryTrigger = ahrs->settings.recoveryTriggerPeriod == 0 ? 0.0f : (floa
 2921              		.loc 1 461 58 view .LVU867
 2922 0030 6369     		ldr	r3, [r4, #20]
 2923              		.loc 1 461 93 view .LVU868
 2924 0032 83B3     		cbz	r3, .L132
 2925              		.loc 1 461 95 discriminator 1 view .LVU869
 2926 0034 D4ED187A 		vldr.32	s15, [r4, #96]	@ int
 2927 0038 F8EEE76A 		vcvt.f32.s32	s13, s15
 2928              		.loc 1 461 139 discriminator 1 view .LVU870
 2929 003c 07EE903A 		vmov	s15, r3	@ int
 2930 0040 F8EE677A 		vcvt.f32.u32	s15, s15
 2931              		.loc 1 461 93 discriminator 1 view .LVU871
 2932 0044 86EEA77A 		vdiv.f32	s14, s13, s15
 2933              	.L130:
 458:Core/Src/FusionAhrs.c ****             .accelerationError = FusionRadiansToDegrees(FusionAsin(2.0f * FusionVectorMagnitude(ahr
 2934              		.loc 1 458 36 view .LVU872
 2935 0048 85ED027A 		vstr.32	s14, [r5, #8]
 462:Core/Src/FusionAhrs.c ****             .magneticError = FusionRadiansToDegrees(FusionAsin(2.0f * FusionVectorMagnitude(ahrs->h
 2936              		.loc 1 462 71 view .LVU873
 2937 004c 94ED140A 		vldr.32	s0, [r4, #80]
 2938 0050 D4ED150A 		vldr.32	s1, [r4, #84]
 2939 0054 94ED161A 		vldr.32	s2, [r4, #88]
 2940 0058 FFF7FEFF 		bl	FusionVectorMagnitude
 2941              	.LVL122:
 2942              		.loc 1 462 53 discriminator 1 view .LVU874
 2943 005c 30EE000A 		vadd.f32	s0, s0, s0
 2944 0060 FFF7FEFF 		bl	FusionAsin
 2945              	.LVL123:
 2946              	.LBB114:
ARM GAS  /var/folders/w9/l2kswtfn3fs2kslkvv5vg9sh0000gn/T//ccLXrTqc.s 			page 77


 2947              	.LBI114:
 136:Core/Inc/FusionMath.h ****     return radians * (180.0f / (float) M_PI);
 2948              		.loc 2 136 21 is_stmt 1 view .LVU875
 2949              	.LBB115:
 137:Core/Inc/FusionMath.h **** }
 2950              		.loc 2 137 5 view .LVU876
 137:Core/Inc/FusionMath.h **** }
 2951              		.loc 2 137 20 is_stmt 0 view .LVU877
 2952 0064 DFED0F7A 		vldr.32	s15, .L135
 2953 0068 20EE270A 		vmul.f32	s0, s0, s15
 2954              	.LVL124:
 137:Core/Inc/FusionMath.h **** }
 2955              		.loc 2 137 20 view .LVU878
 2956              	.LBE115:
 2957              	.LBE114:
 458:Core/Src/FusionAhrs.c ****             .accelerationError = FusionRadiansToDegrees(FusionAsin(2.0f * FusionVectorMagnitude(ahr
 2958              		.loc 1 458 36 view .LVU879
 2959 006c 85ED030A 		vstr.32	s0, [r5, #12]
 463:Core/Src/FusionAhrs.c ****             .magnetometerIgnored = ahrs->magnetometerIgnored,
 2960              		.loc 1 463 40 view .LVU880
 2961 0070 94F86830 		ldrb	r3, [r4, #104]	@ zero_extendqisi2
 458:Core/Src/FusionAhrs.c ****             .accelerationError = FusionRadiansToDegrees(FusionAsin(2.0f * FusionVectorMagnitude(ahr
 2962              		.loc 1 458 36 view .LVU881
 2963 0074 2B74     		strb	r3, [r5, #16]
 464:Core/Src/FusionAhrs.c ****             .magneticRecoveryTrigger = ahrs->settings.recoveryTriggerPeriod == 0 ? 0.0f : (float) a
 2964              		.loc 1 464 54 view .LVU882
 2965 0076 6369     		ldr	r3, [r4, #20]
 2966              		.loc 1 464 89 view .LVU883
 2967 0078 83B1     		cbz	r3, .L133
 2968              		.loc 1 464 103 discriminator 1 view .LVU884
 2969 007a D4ED1B6A 		vldr.32	s13, [r4, #108]	@ int
 2970              		.loc 1 464 91 discriminator 1 view .LVU885
 2971 007e F8EEE66A 		vcvt.f32.s32	s13, s13
 2972              		.loc 1 464 131 discriminator 1 view .LVU886
 2973 0082 07EE903A 		vmov	s15, r3	@ int
 2974 0086 F8EE677A 		vcvt.f32.u32	s15, s15
 2975              		.loc 1 464 89 discriminator 1 view .LVU887
 2976 008a 86EEA77A 		vdiv.f32	s14, s13, s15
 2977              	.L131:
 458:Core/Src/FusionAhrs.c ****             .accelerationError = FusionRadiansToDegrees(FusionAsin(2.0f * FusionVectorMagnitude(ahr
 2978              		.loc 1 458 36 view .LVU888
 2979 008e 85ED057A 		vstr.32	s14, [r5, #20]
 465:Core/Src/FusionAhrs.c ****     };
 466:Core/Src/FusionAhrs.c ****     return internalStates;
 2980              		.loc 1 466 5 is_stmt 1 view .LVU889
 467:Core/Src/FusionAhrs.c **** }
 2981              		.loc 1 467 1 is_stmt 0 view .LVU890
 2982 0092 2846     		mov	r0, r5
 2983 0094 38BD     		pop	{r3, r4, r5, pc}
 2984              	.LVL125:
 2985              	.L132:
 461:Core/Src/FusionAhrs.c ****             .magneticError = FusionRadiansToDegrees(FusionAsin(2.0f * FusionVectorMagnitude(ahrs->h
 2986              		.loc 1 461 93 discriminator 2 view .LVU891
 2987 0096 9FED047A 		vldr.32	s14, .L135+4
 2988 009a D5E7     		b	.L130
 2989              	.L133:
 464:Core/Src/FusionAhrs.c ****     };
ARM GAS  /var/folders/w9/l2kswtfn3fs2kslkvv5vg9sh0000gn/T//ccLXrTqc.s 			page 78


 2990              		.loc 1 464 89 discriminator 2 view .LVU892
 2991 009c 9FED027A 		vldr.32	s14, .L135+4
 2992 00a0 F5E7     		b	.L131
 2993              	.L136:
 2994 00a2 00BF     		.align	2
 2995              	.L135:
 2996 00a4 E02E6542 		.word	1113927392
 2997 00a8 00000000 		.word	0
 2998              		.cfi_endproc
 2999              	.LFE36:
 3001              		.section	.text.FusionAhrsGetFlags,"ax",%progbits
 3002              		.align	1
 3003              		.global	FusionAhrsGetFlags
 3004              		.syntax unified
 3005              		.thumb
 3006              		.thumb_func
 3008              	FusionAhrsGetFlags:
 3009              	.LVL126:
 3010              	.LFB37:
 468:Core/Src/FusionAhrs.c **** 
 469:Core/Src/FusionAhrs.c **** /**
 470:Core/Src/FusionAhrs.c ****  * @brief Returns the AHRS algorithm flags.
 471:Core/Src/FusionAhrs.c ****  * @param ahrs AHRS algorithm structure.
 472:Core/Src/FusionAhrs.c ****  * @return AHRS algorithm flags.
 473:Core/Src/FusionAhrs.c ****  */
 474:Core/Src/FusionAhrs.c **** FusionAhrsFlags FusionAhrsGetFlags(const FusionAhrs *const ahrs) {
 3011              		.loc 1 474 66 is_stmt 1 view -0
 3012              		.cfi_startproc
 3013              		@ args = 0, pretend = 0, frame = 8
 3014              		@ frame_needed = 0, uses_anonymous_args = 0
 3015              		@ link register save eliminated.
 3016              		.loc 1 474 66 is_stmt 0 view .LVU894
 3017 0000 82B0     		sub	sp, sp, #8
 3018              	.LCFI60:
 3019              		.cfi_def_cfa_offset 8
 475:Core/Src/FusionAhrs.c ****     const FusionAhrsFlags flags = {
 3020              		.loc 1 475 5 is_stmt 1 view .LVU895
 476:Core/Src/FusionAhrs.c ****             .initialising = ahrs->initialising,
 3021              		.loc 1 476 33 is_stmt 0 view .LVU896
 3022 0002 90F83430 		ldrb	r3, [r0, #52]	@ zero_extendqisi2
 475:Core/Src/FusionAhrs.c ****     const FusionAhrsFlags flags = {
 3023              		.loc 1 475 27 view .LVU897
 3024 0006 8DF80030 		strb	r3, [sp]
 477:Core/Src/FusionAhrs.c ****             .angularRateRecovery = ahrs->angularRateRecovery,
 3025              		.loc 1 477 40 view .LVU898
 3026 000a 90F84030 		ldrb	r3, [r0, #64]	@ zero_extendqisi2
 475:Core/Src/FusionAhrs.c ****     const FusionAhrsFlags flags = {
 3027              		.loc 1 475 27 view .LVU899
 3028 000e 8DF80130 		strb	r3, [sp, #1]
 478:Core/Src/FusionAhrs.c ****             .accelerationRecovery = ahrs->accelerationRecoveryTrigger > ahrs->accelerationRecoveryT
 3029              		.loc 1 478 41 view .LVU900
 3030 0012 036E     		ldr	r3, [r0, #96]
 3031              		.loc 1 478 77 view .LVU901
 3032 0014 426E     		ldr	r2, [r0, #100]
 3033              		.loc 1 478 13 view .LVU902
 3034 0016 9342     		cmp	r3, r2
 3035 0018 D4BF     		ite	le
ARM GAS  /var/folders/w9/l2kswtfn3fs2kslkvv5vg9sh0000gn/T//ccLXrTqc.s 			page 79


 3036 001a 0023     		movle	r3, #0
 3037 001c 0123     		movgt	r3, #1
 475:Core/Src/FusionAhrs.c ****             .initialising = ahrs->initialising,
 3038              		.loc 1 475 27 view .LVU903
 3039 001e 8DF80230 		strb	r3, [sp, #2]
 479:Core/Src/FusionAhrs.c ****             .magneticRecovery= ahrs->magneticRecoveryTrigger > ahrs->magneticRecoveryTimeout,
 3040              		.loc 1 479 36 view .LVU904
 3041 0022 C36E     		ldr	r3, [r0, #108]
 3042              		.loc 1 479 68 view .LVU905
 3043 0024 026F     		ldr	r2, [r0, #112]
 3044              		.loc 1 479 13 view .LVU906
 3045 0026 9342     		cmp	r3, r2
 3046 0028 D4BF     		ite	le
 3047 002a 0023     		movle	r3, #0
 3048 002c 0123     		movgt	r3, #1
 475:Core/Src/FusionAhrs.c ****             .initialising = ahrs->initialising,
 3049              		.loc 1 475 27 view .LVU907
 3050 002e 8DF80330 		strb	r3, [sp, #3]
 480:Core/Src/FusionAhrs.c ****     };
 481:Core/Src/FusionAhrs.c ****     return flags;
 3051              		.loc 1 481 5 is_stmt 1 view .LVU908
 3052              		.loc 1 481 12 is_stmt 0 view .LVU909
 3053 0032 009B     		ldr	r3, [sp]
 3054 0034 0193     		str	r3, [sp, #4]
 3055 0036 0020     		movs	r0, #0
 3056              	.LVL127:
 3057              		.loc 1 481 12 view .LVU910
 3058 0038 9DF80430 		ldrb	r3, [sp, #4]	@ zero_extendqisi2
 3059 003c 63F30700 		bfi	r0, r3, #0, #8
 3060 0040 9DF80530 		ldrb	r3, [sp, #5]	@ zero_extendqisi2
 3061 0044 63F30F20 		bfi	r0, r3, #8, #8
 3062 0048 9DF80630 		ldrb	r3, [sp, #6]	@ zero_extendqisi2
 3063 004c 63F31740 		bfi	r0, r3, #16, #8
 3064 0050 9DF80730 		ldrb	r3, [sp, #7]	@ zero_extendqisi2
 3065 0054 63F31F60 		bfi	r0, r3, #24, #8
 482:Core/Src/FusionAhrs.c **** }
 3066              		.loc 1 482 1 view .LVU911
 3067 0058 02B0     		add	sp, sp, #8
 3068              	.LCFI61:
 3069              		.cfi_def_cfa_offset 0
 3070              		@ sp needed
 3071 005a 7047     		bx	lr
 3072              		.cfi_endproc
 3073              	.LFE37:
 3075              		.section	.text.FusionAhrsSetHeading,"ax",%progbits
 3076              		.align	1
 3077              		.global	FusionAhrsSetHeading
 3078              		.syntax unified
 3079              		.thumb
 3080              		.thumb_func
 3082              	FusionAhrsSetHeading:
 3083              	.LVL128:
 3084              	.LFB38:
 483:Core/Src/FusionAhrs.c **** 
 484:Core/Src/FusionAhrs.c **** /**
 485:Core/Src/FusionAhrs.c ****  * @brief Sets the heading of the orientation measurement provided by the AHRS
 486:Core/Src/FusionAhrs.c ****  * algorithm.  This function can be used to reset drift in heading when the AHRS
ARM GAS  /var/folders/w9/l2kswtfn3fs2kslkvv5vg9sh0000gn/T//ccLXrTqc.s 			page 80


 487:Core/Src/FusionAhrs.c ****  * algorithm is being used without a magnetometer.
 488:Core/Src/FusionAhrs.c ****  * @param ahrs AHRS algorithm structure.
 489:Core/Src/FusionAhrs.c ****  * @param heading Heading angle in degrees.
 490:Core/Src/FusionAhrs.c ****  */
 491:Core/Src/FusionAhrs.c **** void FusionAhrsSetHeading(FusionAhrs *const ahrs, const float heading) {
 3085              		.loc 1 491 72 is_stmt 1 view -0
 3086              		.cfi_startproc
 3087              		@ args = 0, pretend = 0, frame = 16
 3088              		@ frame_needed = 0, uses_anonymous_args = 0
 3089              		.loc 1 491 72 is_stmt 0 view .LVU913
 3090 0000 10B5     		push	{r4, lr}
 3091              	.LCFI62:
 3092              		.cfi_def_cfa_offset 8
 3093              		.cfi_offset 4, -8
 3094              		.cfi_offset 14, -4
 3095 0002 2DED048B 		vpush.64	{d8, d9}
 3096              	.LCFI63:
 3097              		.cfi_def_cfa_offset 24
 3098              		.cfi_offset 80, -24
 3099              		.cfi_offset 81, -20
 3100              		.cfi_offset 82, -16
 3101              		.cfi_offset 83, -12
 3102 0006 84B0     		sub	sp, sp, #16
 3103              	.LCFI64:
 3104              		.cfi_def_cfa_offset 40
 3105 0008 0446     		mov	r4, r0
 3106 000a B0EE408A 		vmov.f32	s16, s0
 492:Core/Src/FusionAhrs.c **** #define Q ahrs->quaternion.element
 493:Core/Src/FusionAhrs.c ****     const float yaw = atan2f(Q.w * Q.z + Q.x * Q.y, 0.5f - Q.y * Q.y - Q.z * Q.z);
 3107              		.loc 1 493 5 is_stmt 1 view .LVU914
 3108              		.loc 1 493 31 is_stmt 0 view .LVU915
 3109 000e 90ED060A 		vldr.32	s0, [r0, #24]
 3110              	.LVL129:
 3111              		.loc 1 493 37 view .LVU916
 3112 0012 D0ED090A 		vldr.32	s1, [r0, #36]
 3113              		.loc 1 493 34 view .LVU917
 3114 0016 20EE200A 		vmul.f32	s0, s0, s1
 3115              		.loc 1 493 43 view .LVU918
 3116 001a 90ED077A 		vldr.32	s14, [r0, #28]
 3117              		.loc 1 493 49 view .LVU919
 3118 001e D0ED087A 		vldr.32	s15, [r0, #32]
 3119              		.loc 1 493 46 view .LVU920
 3120 0022 27EE277A 		vmul.f32	s14, s14, s15
 3121              		.loc 1 493 64 view .LVU921
 3122 0026 67EEA77A 		vmul.f32	s15, s15, s15
 3123              		.loc 1 493 58 view .LVU922
 3124 002a F6EE008A 		vmov.f32	s17, #5.0e-1
 3125 002e 78EEE77A 		vsub.f32	s15, s17, s15
 3126              		.loc 1 493 76 view .LVU923
 3127 0032 60EEA00A 		vmul.f32	s1, s1, s1
 3128              		.loc 1 493 23 view .LVU924
 3129 0036 77EEE00A 		vsub.f32	s1, s15, s1
 3130 003a 30EE070A 		vadd.f32	s0, s0, s14
 3131 003e FFF7FEFF 		bl	atan2f
 3132              	.LVL130:
 494:Core/Src/FusionAhrs.c ****     const float halfYawMinusHeading = 0.5f * (yaw - FusionDegreesToRadians(heading));
 3133              		.loc 1 494 5 is_stmt 1 view .LVU925
ARM GAS  /var/folders/w9/l2kswtfn3fs2kslkvv5vg9sh0000gn/T//ccLXrTqc.s 			page 81


 3134              	.LBB116:
 3135              	.LBI116:
 127:Core/Inc/FusionMath.h ****     return degrees * ((float) M_PI / 180.0f);
 3136              		.loc 2 127 21 view .LVU926
 3137              	.LBB117:
 128:Core/Inc/FusionMath.h **** }
 3138              		.loc 2 128 5 view .LVU927
 128:Core/Inc/FusionMath.h **** }
 3139              		.loc 2 128 20 is_stmt 0 view .LVU928
 3140 0042 DFED1D7A 		vldr.32	s15, .L141
 3141 0046 28EE278A 		vmul.f32	s16, s16, s15
 3142              	.LVL131:
 128:Core/Inc/FusionMath.h **** }
 3143              		.loc 2 128 20 view .LVU929
 3144              	.LBE117:
 3145              	.LBE116:
 3146              		.loc 1 494 51 discriminator 1 view .LVU930
 3147 004a 30EE488A 		vsub.f32	s16, s0, s16
 3148              		.loc 1 494 17 discriminator 1 view .LVU931
 3149 004e 28EE288A 		vmul.f32	s16, s16, s17
 3150              	.LVL132:
 495:Core/Src/FusionAhrs.c ****     const FusionQuaternion rotation = {.element = {
 3151              		.loc 1 495 5 is_stmt 1 view .LVU932
 496:Core/Src/FusionAhrs.c ****             .w = cosf(halfYawMinusHeading),
 3152              		.loc 1 496 18 is_stmt 0 view .LVU933
 3153 0052 B0EE480A 		vmov.f32	s0, s16
 3154              	.LVL133:
 3155              		.loc 1 496 18 view .LVU934
 3156 0056 FFF7FEFF 		bl	cosf
 3157              	.LVL134:
 3158 005a B0EE409A 		vmov.f32	s18, s0
 495:Core/Src/FusionAhrs.c ****     const FusionQuaternion rotation = {.element = {
 3159              		.loc 1 495 28 view .LVU935
 3160 005e 8DED000A 		vstr.32	s0, [sp]
 3161 0062 DFED168A 		vldr.32	s17, .L141+4
 3162 0066 CDED018A 		vstr.32	s17, [sp, #4]
 3163 006a CDED028A 		vstr.32	s17, [sp, #8]
 497:Core/Src/FusionAhrs.c ****             .x = 0.0f,
 498:Core/Src/FusionAhrs.c ****             .y = 0.0f,
 499:Core/Src/FusionAhrs.c ****             .z = -1.0f * sinf(halfYawMinusHeading),
 3164              		.loc 1 499 26 view .LVU936
 3165 006e B0EE480A 		vmov.f32	s0, s16
 3166 0072 FFF7FEFF 		bl	sinf
 3167              	.LVL135:
 3168              		.loc 1 499 24 discriminator 1 view .LVU937
 3169 0076 F1EE401A 		vneg.f32	s3, s0
 495:Core/Src/FusionAhrs.c ****             .w = cosf(halfYawMinusHeading),
 3170              		.loc 1 495 28 view .LVU938
 3171 007a CDED031A 		vstr.32	s3, [sp, #12]
 500:Core/Src/FusionAhrs.c ****     }};
 501:Core/Src/FusionAhrs.c ****     ahrs->quaternion = FusionQuaternionMultiply(rotation, ahrs->quaternion);
 3172              		.loc 1 501 5 is_stmt 1 view .LVU939
 3173              		.loc 1 501 24 is_stmt 0 view .LVU940
 3174 007e 94ED062A 		vldr.32	s4, [r4, #24]
 3175 0082 D4ED072A 		vldr.32	s5, [r4, #28]
 3176 0086 94ED083A 		vldr.32	s6, [r4, #32]
 3177 008a D4ED093A 		vldr.32	s7, [r4, #36]
ARM GAS  /var/folders/w9/l2kswtfn3fs2kslkvv5vg9sh0000gn/T//ccLXrTqc.s 			page 82


 3178 008e B0EE490A 		vmov.f32	s0, s18
 3179 0092 F0EE680A 		vmov.f32	s1, s17
 3180 0096 B0EE681A 		vmov.f32	s2, s17
 3181 009a FFF7FEFF 		bl	FusionQuaternionMultiply
 3182              	.LVL136:
 3183 009e 84ED060A 		vstr.32	s0, [r4, #24]
 3184 00a2 C4ED070A 		vstr.32	s1, [r4, #28]
 3185 00a6 84ED081A 		vstr.32	s2, [r4, #32]
 3186 00aa C4ED091A 		vstr.32	s3, [r4, #36]
 502:Core/Src/FusionAhrs.c **** #undef Q
 503:Core/Src/FusionAhrs.c **** }
 3187              		.loc 1 503 1 view .LVU941
 3188 00ae 04B0     		add	sp, sp, #16
 3189              	.LCFI65:
 3190              		.cfi_def_cfa_offset 24
 3191              		@ sp needed
 3192 00b0 BDEC048B 		vldm	sp!, {d8-d9}
 3193              	.LCFI66:
 3194              		.cfi_restore 82
 3195              		.cfi_restore 83
 3196              		.cfi_restore 80
 3197              		.cfi_restore 81
 3198              		.cfi_def_cfa_offset 8
 3199              	.LVL137:
 3200              		.loc 1 503 1 view .LVU942
 3201 00b4 10BD     		pop	{r4, pc}
 3202              	.LVL138:
 3203              	.L142:
 3204              		.loc 1 503 1 view .LVU943
 3205 00b6 00BF     		.align	2
 3206              	.L141:
 3207 00b8 35FA8E3C 		.word	1016003125
 3208 00bc 00000000 		.word	0
 3209              		.cfi_endproc
 3210              	.LFE38:
 3212              		.section	.text.FusionAhrsUpdateNoMagnetometer,"ax",%progbits
 3213              		.align	1
 3214              		.global	FusionAhrsUpdateNoMagnetometer
 3215              		.syntax unified
 3216              		.thumb
 3217              		.thumb_func
 3219              	FusionAhrsUpdateNoMagnetometer:
 3220              	.LVL139:
 3221              	.LFB30:
 325:Core/Src/FusionAhrs.c **** 
 3222              		.loc 1 325 148 is_stmt 1 view -0
 3223              		.cfi_startproc
 3224              		@ args = 0, pretend = 0, frame = 40
 3225              		@ frame_needed = 0, uses_anonymous_args = 0
 325:Core/Src/FusionAhrs.c **** 
 3226              		.loc 1 325 148 is_stmt 0 view .LVU945
 3227 0000 10B5     		push	{r4, lr}
 3228              	.LCFI67:
 3229              		.cfi_def_cfa_offset 8
 3230              		.cfi_offset 4, -8
 3231              		.cfi_offset 14, -4
 3232 0002 8AB0     		sub	sp, sp, #40
ARM GAS  /var/folders/w9/l2kswtfn3fs2kslkvv5vg9sh0000gn/T//ccLXrTqc.s 			page 83


 3233              	.LCFI68:
 3234              		.cfi_def_cfa_offset 48
 3235 0004 0446     		mov	r4, r0
 3236 0006 F0EE434A 		vmov.f32	s9, s6
 3237 000a 8DED030A 		vstr.32	s0, [sp, #12]
 3238 000e CDED040A 		vstr.32	s1, [sp, #16]
 3239 0012 8DED051A 		vstr.32	s2, [sp, #20]
 3240 0016 CDED001A 		vstr.32	s3, [sp]
 3241 001a 8DED012A 		vstr.32	s4, [sp, #4]
 3242 001e CDED022A 		vstr.32	s5, [sp, #8]
 328:Core/Src/FusionAhrs.c **** 
 3243              		.loc 1 328 5 is_stmt 1 view .LVU946
 328:Core/Src/FusionAhrs.c **** 
 3244              		.loc 1 328 54 is_stmt 0 view .LVU947
 3245 0022 9FED0C4A 		vldr.32	s8, .L147
 3246 0026 8DED074A 		vstr.32	s8, [sp, #28]
 3247 002a 8DED084A 		vstr.32	s8, [sp, #32]
 3248 002e 8DED094A 		vstr.32	s8, [sp, #36]
 328:Core/Src/FusionAhrs.c **** 
 3249              		.loc 1 328 5 view .LVU948
 3250 0032 B0EE443A 		vmov.f32	s6, s8
 3251              	.LVL140:
 328:Core/Src/FusionAhrs.c **** 
 3252              		.loc 1 328 5 view .LVU949
 3253 0036 F0EE443A 		vmov.f32	s7, s8
 3254 003a FFF7FEFF 		bl	FusionAhrsUpdate
 3255              	.LVL141:
 331:Core/Src/FusionAhrs.c ****         FusionAhrsSetHeading(ahrs, 0.0f);
 3256              		.loc 1 331 5 is_stmt 1 view .LVU950
 331:Core/Src/FusionAhrs.c ****         FusionAhrsSetHeading(ahrs, 0.0f);
 3257              		.loc 1 331 13 is_stmt 0 view .LVU951
 3258 003e 94F83430 		ldrb	r3, [r4, #52]	@ zero_extendqisi2
 331:Core/Src/FusionAhrs.c ****         FusionAhrsSetHeading(ahrs, 0.0f);
 3259              		.loc 1 331 8 view .LVU952
 3260 0042 0BB9     		cbnz	r3, .L146
 3261              	.L143:
 334:Core/Src/FusionAhrs.c **** 
 3262              		.loc 1 334 1 view .LVU953
 3263 0044 0AB0     		add	sp, sp, #40
 3264              	.LCFI69:
 3265              		.cfi_remember_state
 3266              		.cfi_def_cfa_offset 8
 3267              		@ sp needed
 3268 0046 10BD     		pop	{r4, pc}
 3269              	.LVL142:
 3270              	.L146:
 3271              	.LCFI70:
 3272              		.cfi_restore_state
 332:Core/Src/FusionAhrs.c ****     }
 3273              		.loc 1 332 9 is_stmt 1 view .LVU954
 3274 0048 9FED020A 		vldr.32	s0, .L147
 3275 004c 2046     		mov	r0, r4
 3276 004e FFF7FEFF 		bl	FusionAhrsSetHeading
 3277              	.LVL143:
 334:Core/Src/FusionAhrs.c **** 
 3278              		.loc 1 334 1 is_stmt 0 view .LVU955
 3279 0052 F7E7     		b	.L143
ARM GAS  /var/folders/w9/l2kswtfn3fs2kslkvv5vg9sh0000gn/T//ccLXrTqc.s 			page 84


 3280              	.L148:
 3281              		.align	2
 3282              	.L147:
 3283 0054 00000000 		.word	0
 3284              		.cfi_endproc
 3285              	.LFE30:
 3287              		.section	.rodata
 3288              		.align	2
 3289              		.set	.LANCHOR0,. + 0
 3290              	.LC0:
 3291 0000 00       		.byte	0
 3292 0001 000000   		.space	3
 3293 0004 0000003F 		.word	1056964608
 3294 0008 00000000 		.word	0
 3295 000c 0000B442 		.word	1119092736
 3296 0010 0000B442 		.word	1119092736
 3297 0014 00000000 		.word	0
 3298              		.text
 3299              	.Letext0:
 3300              		.file 3 "Core/Inc/FusionConvention.h"
 3301              		.file 4 "/opt/ST/STM32CubeCLT_1.21.0/GNU-tools-for-STM32/arm-none-eabi/include/machine/_default_ty
 3302              		.file 5 "/opt/ST/STM32CubeCLT_1.21.0/GNU-tools-for-STM32/arm-none-eabi/include/sys/_stdint.h"
 3303              		.file 6 "Core/Inc/FusionAhrs.h"
 3304              		.file 7 "/opt/ST/STM32CubeCLT_1.21.0/GNU-tools-for-STM32/arm-none-eabi/include/math.h"
ARM GAS  /var/folders/w9/l2kswtfn3fs2kslkvv5vg9sh0000gn/T//ccLXrTqc.s 			page 85

