ARM GAS  /var/folders/w5/30yxzty101lfkjn94y0dlkk00000gn/T//ccZKr8cu.s 			page 1


   1              		.cpu cortex-m4
   2              		.arch armv7e-m
   3              		.fpu fpv4-sp-d16
   4              		.eabi_attribute 27, 1
   5              		.eabi_attribute 28, 1
   6              		.eabi_attribute 20, 1
   7              		.eabi_attribute 21, 1
   8              		.eabi_attribute 23, 3
   9              		.eabi_attribute 24, 1
  10              		.eabi_attribute 25, 1
  11              		.eabi_attribute 26, 1
  12              		.eabi_attribute 30, 1
  13              		.eabi_attribute 34, 1
  14              		.eabi_attribute 18, 4
  15              		.file	"pid.c"
  16              		.text
  17              	.Ltext0:
  18              		.cfi_sections	.debug_frame
  19              		.file 1 "Core/Src/pid.c"
  20              		.section	.text.pid_param_init,"ax",%progbits
  21              		.align	1
  22              		.syntax unified
  23              		.thumb
  24              		.thumb_func
  26              	pid_param_init:
  27              	.LVL0:
  28              	.LFB162:
   1:Core/Src/pid.c **** //pid.c
   2:Core/Src/pid.c **** //2023.11.9
   3:Core/Src/pid.c **** //by gjx
   4:Core/Src/pid.c **** 
   5:Core/Src/pid.c **** /* Includes ------------------------------------------------------------------*/
   6:Core/Src/pid.c **** #include "pid.h"
   7:Core/Src/pid.c **** #include "stm32f4xx.h"
   8:Core/Src/pid.c **** 
   9:Core/Src/pid.c **** #define ABS(x)		((x>0)? x: -x) 
  10:Core/Src/pid.c **** 
  11:Core/Src/pid.c **** PID_TypeDef pid_pitch,pid_pithch_speed,pid_roll,pid_roll_speed,pid_yaw_speed;
  12:Core/Src/pid.c **** extern int isMove;
  13:Core/Src/pid.c **** 
  14:Core/Src/pid.c **** /*参数初始化--------------------------------------------------------------*/
  15:Core/Src/pid.c **** static void pid_param_init(
  16:Core/Src/pid.c **** 	PID_TypeDef * pid, 
  17:Core/Src/pid.c **** 	PID_ID   id,
  18:Core/Src/pid.c **** 	uint16_t maxout,
  19:Core/Src/pid.c **** 	uint16_t intergral_limit,
  20:Core/Src/pid.c **** 	float deadband,
  21:Core/Src/pid.c **** 	uint16_t period,
  22:Core/Src/pid.c **** 	int16_t  max_err,
  23:Core/Src/pid.c **** 	int16_t  target,
  24:Core/Src/pid.c **** 
  25:Core/Src/pid.c **** 	float 	kp, 
  26:Core/Src/pid.c **** 	float 	ki, 
  27:Core/Src/pid.c **** 	float 	kd)
  28:Core/Src/pid.c **** {
  29              		.loc 1 28 1 view -0
  30              		.cfi_startproc
ARM GAS  /var/folders/w5/30yxzty101lfkjn94y0dlkk00000gn/T//ccZKr8cu.s 			page 2


  31              		@ args = 12, pretend = 0, frame = 0
  32              		@ frame_needed = 0, uses_anonymous_args = 0
  33              		@ link register save eliminated.
  34              		.loc 1 28 1 is_stmt 0 view .LVU1
  35 0000 07EE902A 		vmov	s15, r2	@ int
  36 0004 07EE103A 		vmov	s14, r3	@ int
  29:Core/Src/pid.c **** 	pid->id = id;		
  37              		.loc 1 29 2 is_stmt 1 view .LVU2
  38              		.loc 1 29 10 is_stmt 0 view .LVU3
  39 0008 0170     		strb	r1, [r0]
  30:Core/Src/pid.c **** 	
  31:Core/Src/pid.c **** 	pid->ControlPeriod = period;             //没用到
  40              		.loc 1 31 2 is_stmt 1 view .LVU4
  41              		.loc 1 31 21 is_stmt 0 view .LVU5
  42 000a BDF80030 		ldrh	r3, [sp]
  43              	.LVL1:
  44              		.loc 1 31 21 view .LVU6
  45 000e 06EE903A 		vmov	s13, r3	@ int
  46 0012 F8EE666A 		vcvt.f32.u32	s13, s13
  47 0016 C0ED126A 		vstr.32	s13, [r0, #72]
  32:Core/Src/pid.c **** 	pid->DeadBand = deadband;
  48              		.loc 1 32 2 is_stmt 1 view .LVU7
  49              		.loc 1 32 16 is_stmt 0 view .LVU8
  50 001a 80ED110A 		vstr.32	s0, [r0, #68]
  33:Core/Src/pid.c **** 	pid->IntegralLimit = intergral_limit;
  51              		.loc 1 33 2 is_stmt 1 view .LVU9
  52              		.loc 1 33 21 is_stmt 0 view .LVU10
  53 001e B8EE477A 		vcvt.f32.u32	s14, s14
  54              	.LVL2:
  55              		.loc 1 33 21 view .LVU11
  56 0022 80ED107A 		vstr.32	s14, [r0, #64]
  34:Core/Src/pid.c **** 	pid->MaxOutput = maxout;
  57              		.loc 1 34 2 is_stmt 1 view .LVU12
  58              		.loc 1 34 17 is_stmt 0 view .LVU13
  59 0026 F8EE677A 		vcvt.f32.u32	s15, s15
  60 002a C0ED0F7A 		vstr.32	s15, [r0, #60]
  35:Core/Src/pid.c **** 	pid->Max_Err = max_err;
  61              		.loc 1 35 2 is_stmt 1 view .LVU14
  62              		.loc 1 35 15 is_stmt 0 view .LVU15
  63 002e BDF90430 		ldrsh	r3, [sp, #4]
  64 0032 07EE903A 		vmov	s15, r3	@ int
  65 0036 F8EEE77A 		vcvt.f32.s32	s15, s15
  66 003a C0ED137A 		vstr.32	s15, [r0, #76]
  36:Core/Src/pid.c **** 	pid->target = target;
  67              		.loc 1 36 2 is_stmt 1 view .LVU16
  68              		.loc 1 36 14 is_stmt 0 view .LVU17
  69 003e BDF90830 		ldrsh	r3, [sp, #8]
  70 0042 07EE903A 		vmov	s15, r3	@ int
  71 0046 F8EEE77A 		vcvt.f32.s32	s15, s15
  72 004a C0ED017A 		vstr.32	s15, [r0, #4]
  37:Core/Src/pid.c **** 	
  38:Core/Src/pid.c **** 	pid->kp = kp;
  73              		.loc 1 38 2 is_stmt 1 view .LVU18
  74              		.loc 1 38 10 is_stmt 0 view .LVU19
  75 004e C0ED030A 		vstr.32	s1, [r0, #12]
  39:Core/Src/pid.c **** 	pid->ki = ki;
  76              		.loc 1 39 2 is_stmt 1 view .LVU20
ARM GAS  /var/folders/w5/30yxzty101lfkjn94y0dlkk00000gn/T//ccZKr8cu.s 			page 3


  77              		.loc 1 39 10 is_stmt 0 view .LVU21
  78 0052 80ED041A 		vstr.32	s2, [r0, #16]
  40:Core/Src/pid.c **** 	pid->kd = kd;
  79              		.loc 1 40 2 is_stmt 1 view .LVU22
  80              		.loc 1 40 10 is_stmt 0 view .LVU23
  81 0056 C0ED051A 		vstr.32	s3, [r0, #20]
  41:Core/Src/pid.c **** 	
  42:Core/Src/pid.c **** 	pid->output = 0;
  82              		.loc 1 42 2 is_stmt 1 view .LVU24
  83              		.loc 1 42 14 is_stmt 0 view .LVU25
  84 005a 0023     		movs	r3, #0
  85 005c 0363     		str	r3, [r0, #48]	@ float
  43:Core/Src/pid.c **** }
  86              		.loc 1 43 1 view .LVU26
  87 005e 7047     		bx	lr
  88              		.cfi_endproc
  89              	.LFE162:
  91              		.section	.text.pid_reset,"ax",%progbits
  92              		.align	1
  93              		.syntax unified
  94              		.thumb
  95              		.thumb_func
  97              	pid_reset:
  98              	.LVL3:
  99              	.LFB163:
  44:Core/Src/pid.c **** 
  45:Core/Src/pid.c **** /*中途更改参数设定--------------------------------------------------------------*/
  46:Core/Src/pid.c **** static void pid_reset(PID_TypeDef * pid, float kp, float ki, float kd)
  47:Core/Src/pid.c **** {
 100              		.loc 1 47 1 is_stmt 1 view -0
 101              		.cfi_startproc
 102              		@ args = 0, pretend = 0, frame = 0
 103              		@ frame_needed = 0, uses_anonymous_args = 0
 104              		@ link register save eliminated.
  48:Core/Src/pid.c **** 	pid->kp = kp;
 105              		.loc 1 48 2 view .LVU28
 106              		.loc 1 48 10 is_stmt 0 view .LVU29
 107 0000 80ED030A 		vstr.32	s0, [r0, #12]
  49:Core/Src/pid.c **** 	pid->ki = ki;
 108              		.loc 1 49 2 is_stmt 1 view .LVU30
 109              		.loc 1 49 10 is_stmt 0 view .LVU31
 110 0004 C0ED040A 		vstr.32	s1, [r0, #16]
  50:Core/Src/pid.c **** 	pid->kd = kd;
 111              		.loc 1 50 2 is_stmt 1 view .LVU32
 112              		.loc 1 50 10 is_stmt 0 view .LVU33
 113 0008 80ED051A 		vstr.32	s2, [r0, #20]
  51:Core/Src/pid.c **** }
 114              		.loc 1 51 1 view .LVU34
 115 000c 7047     		bx	lr
 116              		.cfi_endproc
 117              	.LFE163:
 119              		.global	__aeabi_f2d
 120              		.global	__aeabi_dmul
 121              		.global	__aeabi_dsub
 122              		.global	__aeabi_i2d
 123              		.global	__aeabi_ddiv
 124              		.global	__aeabi_dadd
ARM GAS  /var/folders/w5/30yxzty101lfkjn94y0dlkk00000gn/T//ccZKr8cu.s 			page 4


 125              		.global	__aeabi_d2f
 126              		.section	.text.pid_calculate,"ax",%progbits
 127              		.align	1
 128              		.syntax unified
 129              		.thumb
 130              		.thumb_func
 132              	pid_calculate:
 133              	.LVL4:
 134              	.LFB164:
  52:Core/Src/pid.c **** 
  53:Core/Src/pid.c **** /*pid计算-----------------------------------------------------------------------*/
  54:Core/Src/pid.c **** 
  55:Core/Src/pid.c **** 	
  56:Core/Src/pid.c **** static float pid_calculate(PID_TypeDef* pid, float measure)//, int16_t target)
  57:Core/Src/pid.c **** {
 135              		.loc 1 57 1 is_stmt 1 view -0
 136              		.cfi_startproc
 137              		@ args = 0, pretend = 0, frame = 0
 138              		@ frame_needed = 0, uses_anonymous_args = 0
 139              		.loc 1 57 1 is_stmt 0 view .LVU36
 140 0000 2DE9F843 		push	{r3, r4, r5, r6, r7, r8, r9, lr}
 141              	.LCFI0:
 142              		.cfi_def_cfa_offset 32
 143              		.cfi_offset 3, -32
 144              		.cfi_offset 4, -28
 145              		.cfi_offset 5, -24
 146              		.cfi_offset 6, -20
 147              		.cfi_offset 7, -16
 148              		.cfi_offset 8, -12
 149              		.cfi_offset 9, -8
 150              		.cfi_offset 14, -4
 151 0004 2DED028B 		vpush.64	{d8}
 152              	.LCFI1:
 153              		.cfi_def_cfa_offset 40
 154              		.cfi_offset 80, -40
 155              		.cfi_offset 81, -36
 156 0008 0446     		mov	r4, r0
 157 000a F0EE408A 		vmov.f32	s17, s0
  58:Core/Src/pid.c **** //	uint32_t time,lasttime;
  59:Core/Src/pid.c **** 	
  60:Core/Src/pid.c **** 	pid->lasttime = pid->thistime;
 158              		.loc 1 60 2 is_stmt 1 view .LVU37
 159              		.loc 1 60 21 is_stmt 0 view .LVU38
 160 000e 036D     		ldr	r3, [r0, #80]
 161              		.loc 1 60 16 view .LVU39
 162 0010 4365     		str	r3, [r0, #84]
  61:Core/Src/pid.c **** 	pid->thistime = HAL_GetTick();
 163              		.loc 1 61 2 is_stmt 1 view .LVU40
 164              		.loc 1 61 18 is_stmt 0 view .LVU41
 165 0012 FFF7FEFF 		bl	HAL_GetTick
 166              	.LVL5:
 167              		.loc 1 61 16 discriminator 1 view .LVU42
 168 0016 2065     		str	r0, [r4, #80]
  62:Core/Src/pid.c **** 	pid->dtime = pid->thistime-pid->lasttime;
 169              		.loc 1 62 2 is_stmt 1 view .LVU43
 170              		.loc 1 62 32 is_stmt 0 view .LVU44
 171 0018 636D     		ldr	r3, [r4, #84]
ARM GAS  /var/folders/w5/30yxzty101lfkjn94y0dlkk00000gn/T//ccZKr8cu.s 			page 5


 172              		.loc 1 62 28 view .LVU45
 173 001a C01A     		subs	r0, r0, r3
 174 001c C5B2     		uxtb	r5, r0
 175              		.loc 1 62 13 view .LVU46
 176 001e 84F85850 		strb	r5, [r4, #88]
  63:Core/Src/pid.c **** 	pid->measure = measure;
 177              		.loc 1 63 2 is_stmt 1 view .LVU47
 178              		.loc 1 63 15 is_stmt 0 view .LVU48
 179 0022 C4ED068A 		vstr.32	s17, [r4, #24]
  64:Core/Src/pid.c ****   //	pid->target = target;
  65:Core/Src/pid.c **** 		
  66:Core/Src/pid.c **** //	pid->last_err  = pid->err;
  67:Core/Src/pid.c **** //	pid->last_output = pid->output;
  68:Core/Src/pid.c **** 	
  69:Core/Src/pid.c **** 	pid->err = pid->target - pid->measure;
 180              		.loc 1 69 2 is_stmt 1 view .LVU49
 181              		.loc 1 69 16 is_stmt 0 view .LVU50
 182 0026 94ED018A 		vldr.32	s16, [r4, #4]
 183              		.loc 1 69 25 view .LVU51
 184 002a 38EE688A 		vsub.f32	s16, s16, s17
 185              		.loc 1 69 11 view .LVU52
 186 002e 84ED078A 		vstr.32	s16, [r4, #28]
  70:Core/Src/pid.c **** 	
  71:Core/Src/pid.c **** 	//是否进入死区
  72:Core/Src/pid.c **** 	if((ABS(pid->err) > pid->DeadBand))
 187              		.loc 1 72 2 is_stmt 1 view .LVU53
 188              		.loc 1 72 6 is_stmt 0 view .LVU54
 189 0032 B5EEC08A 		vcmpe.f32	s16, #0
 190 0036 F1EE10FA 		vmrs	APSR_nzcv, FPSCR
 191 003a 73DD     		ble	.L18
 192              		.loc 1 72 6 discriminator 1 view .LVU55
 193 003c F0EE487A 		vmov.f32	s15, s16
 194              	.L4:
 195              		.loc 1 72 25 discriminator 4 view .LVU56
 196 0040 94ED117A 		vldr.32	s14, [r4, #68]
 197              		.loc 1 72 4 discriminator 4 view .LVU57
 198 0044 B4EEE77A 		vcmpe.f32	s14, s15
 199 0048 F1EE10FA 		vmrs	APSR_nzcv, FPSCR
 200 004c 64D5     		bpl	.L5
  73:Core/Src/pid.c **** 	{
  74:Core/Src/pid.c **** 		pid->pout = pid->kp * pid->err;
 201              		.loc 1 74 3 is_stmt 1 view .LVU58
 202              		.loc 1 74 18 is_stmt 0 view .LVU59
 203 004e D4ED038A 		vldr.32	s17, [r4, #12]
 204              	.LVL6:
 205              		.loc 1 74 23 view .LVU60
 206 0052 68EE288A 		vmul.f32	s17, s16, s17
 207              		.loc 1 74 13 view .LVU61
 208 0056 C4ED098A 		vstr.32	s17, [r4, #36]
  75:Core/Src/pid.c **** 		pid->iout += (pid->ki * pid->err - 3 * 0.6566 * (pid->calculate_output - pid->output)) * pid->dti
 209              		.loc 1 75 3 is_stmt 1 view .LVU62
 210              		.loc 1 75 6 is_stmt 0 view .LVU63
 211 005a A06A     		ldr	r0, [r4, #40]	@ float
 212 005c FFF7FEFF 		bl	__aeabi_f2d
 213              	.LVL7:
 214              		.loc 1 75 6 view .LVU64
 215 0060 0646     		mov	r6, r0
ARM GAS  /var/folders/w5/30yxzty101lfkjn94y0dlkk00000gn/T//ccZKr8cu.s 			page 6


 216 0062 0F46     		mov	r7, r1
 217              		.loc 1 75 20 view .LVU65
 218 0064 D4ED047A 		vldr.32	s15, [r4, #16]
 219              		.loc 1 75 25 view .LVU66
 220 0068 68EE277A 		vmul.f32	s15, s16, s15
 221 006c 17EE900A 		vmov	r0, s15
 222 0070 FFF7FEFF 		bl	__aeabi_f2d
 223              	.LVL8:
 224 0074 8046     		mov	r8, r0
 225 0076 8946     		mov	r9, r1
 226              		.loc 1 75 55 view .LVU67
 227 0078 94ED0E7A 		vldr.32	s14, [r4, #56]
 228              		.loc 1 75 79 view .LVU68
 229 007c D4ED0C7A 		vldr.32	s15, [r4, #48]
 230              		.loc 1 75 74 view .LVU69
 231 0080 77EE677A 		vsub.f32	s15, s14, s15
 232 0084 17EE900A 		vmov	r0, s15
 233 0088 FFF7FEFF 		bl	__aeabi_f2d
 234              	.LVL9:
 235              		.loc 1 75 49 view .LVU70
 236 008c 30A3     		adr	r3, .L19+8
 237 008e D3E90023 		ldrd	r2, [r3]
 238 0092 FFF7FEFF 		bl	__aeabi_dmul
 239              	.LVL10:
 240 0096 0246     		mov	r2, r0
 241 0098 0B46     		mov	r3, r1
 242              		.loc 1 75 36 view .LVU71
 243 009a 4046     		mov	r0, r8
 244 009c 4946     		mov	r1, r9
 245 009e FFF7FEFF 		bl	__aeabi_dsub
 246              	.LVL11:
 247 00a2 8046     		mov	r8, r0
 248 00a4 8946     		mov	r9, r1
 249              		.loc 1 75 90 view .LVU72
 250 00a6 2846     		mov	r0, r5
 251 00a8 FFF7FEFF 		bl	__aeabi_i2d
 252              	.LVL12:
 253 00ac 4246     		mov	r2, r8
 254 00ae 4B46     		mov	r3, r9
 255 00b0 FFF7FEFF 		bl	__aeabi_dmul
 256              	.LVL13:
 257              		.loc 1 75 103 view .LVU73
 258 00b4 0022     		movs	r2, #0
 259 00b6 244B     		ldr	r3, .L19
 260 00b8 FFF7FEFF 		bl	__aeabi_ddiv
 261              	.LVL14:
 262 00bc 0246     		mov	r2, r0
 263 00be 0B46     		mov	r3, r1
 264              		.loc 1 75 13 view .LVU74
 265 00c0 3046     		mov	r0, r6
 266 00c2 3946     		mov	r1, r7
 267 00c4 FFF7FEFF 		bl	__aeabi_dadd
 268              	.LVL15:
 269 00c8 FFF7FEFF 		bl	__aeabi_d2f
 270              	.LVL16:
 271 00cc 07EE100A 		vmov	s14, r0
 272 00d0 A062     		str	r0, [r4, #40]	@ float
ARM GAS  /var/folders/w5/30yxzty101lfkjn94y0dlkk00000gn/T//ccZKr8cu.s 			page 7


  76:Core/Src/pid.c **** 		pid->dout =  pid->kd * (pid->err - pid->last_err) / (pid->dtime / 1000.0f); 
 273              		.loc 1 76 3 is_stmt 1 view .LVU75
 274              		.loc 1 76 19 is_stmt 0 view .LVU76
 275 00d2 D4ED056A 		vldr.32	s13, [r4, #20]
 276              		.loc 1 76 41 view .LVU77
 277 00d6 D4ED087A 		vldr.32	s15, [r4, #32]
 278              		.loc 1 76 36 view .LVU78
 279 00da 38EE678A 		vsub.f32	s16, s16, s15
 280              		.loc 1 76 24 view .LVU79
 281 00de 66EE886A 		vmul.f32	s13, s13, s16
 282              		.loc 1 76 67 view .LVU80
 283 00e2 07EE905A 		vmov	s15, r5	@ int
 284 00e6 F8EEE77A 		vcvt.f32.s32	s15, s15
 285 00ea DFED185A 		vldr.32	s11, .L19+4
 286 00ee 87EEA56A 		vdiv.f32	s12, s15, s11
 287              		.loc 1 76 53 view .LVU81
 288 00f2 C6EE867A 		vdiv.f32	s15, s13, s12
 289              		.loc 1 76 13 view .LVU82
 290 00f6 C4ED0B7A 		vstr.32	s15, [r4, #44]
  77:Core/Src/pid.c **** 		
  78:Core/Src/pid.c **** 		//积分是否超出限制
  79:Core/Src/pid.c **** //		if(pid->iout > pid->IntegralLimit)
  80:Core/Src/pid.c **** //			pid->iout = pid->IntegralLimit;
  81:Core/Src/pid.c **** //		if(pid->iout < - pid->IntegralLimit)
  82:Core/Src/pid.c **** //			pid->iout = - pid->IntegralLimit;
  83:Core/Src/pid.c **** 		
  84:Core/Src/pid.c **** 		//pid理论输出和
  85:Core/Src/pid.c **** 		pid->calculate_output = pid->pout + pid->iout + pid->dout;
 291              		.loc 1 85 3 is_stmt 1 view .LVU83
 292              		.loc 1 85 37 is_stmt 0 view .LVU84
 293 00fa 78EE878A 		vadd.f32	s17, s17, s14
 294              		.loc 1 85 49 view .LVU85
 295 00fe 77EEA87A 		vadd.f32	s15, s15, s17
 296              		.loc 1 85 25 view .LVU86
 297 0102 C4ED0E7A 		vstr.32	s15, [r4, #56]
  86:Core/Src/pid.c **** 		
  87:Core/Src/pid.c **** 		//pid->output = pid->output*0.7f + pid->last_output*0.3f;  //滤波？
  88:Core/Src/pid.c **** 		
  89:Core/Src/pid.c **** 		if(pid->calculate_output>pid->MaxOutput)         
 298              		.loc 1 89 3 is_stmt 1 view .LVU87
 299              		.loc 1 89 31 is_stmt 0 view .LVU88
 300 0106 94ED0F7A 		vldr.32	s14, [r4, #60]
 301              		.loc 1 89 5 view .LVU89
 302 010a F4EEC77A 		vcmpe.f32	s15, s14
 303 010e F1EE10FA 		vmrs	APSR_nzcv, FPSCR
 304 0112 0ADD     		ble	.L15
  90:Core/Src/pid.c **** 		{
  91:Core/Src/pid.c **** 			pid->output = pid->MaxOutput;
 305              		.loc 1 91 4 is_stmt 1 view .LVU90
 306              		.loc 1 91 16 is_stmt 0 view .LVU91
 307 0114 84ED0C7A 		vstr.32	s14, [r4, #48]
 308              	.L5:
  92:Core/Src/pid.c **** 		}
  93:Core/Src/pid.c **** 		else if(pid->calculate_output < -(pid->MaxOutput))
  94:Core/Src/pid.c **** 		{
  95:Core/Src/pid.c **** 			pid->output = -(pid->MaxOutput);
  96:Core/Src/pid.c **** 		}
ARM GAS  /var/folders/w5/30yxzty101lfkjn94y0dlkk00000gn/T//ccZKr8cu.s 			page 8


  97:Core/Src/pid.c **** 		else{
  98:Core/Src/pid.c **** 			pid->output = pid->calculate_output;
  99:Core/Src/pid.c **** 		}
 100:Core/Src/pid.c **** 	
 101:Core/Src/pid.c **** 	}
 102:Core/Src/pid.c **** 
 103:Core/Src/pid.c **** 
 104:Core/Src/pid.c **** 	return pid->output;
 309              		.loc 1 104 2 is_stmt 1 view .LVU92
 105:Core/Src/pid.c **** }
 310              		.loc 1 105 1 is_stmt 0 view .LVU93
 311 0118 94ED0C0A 		vldr.32	s0, [r4, #48]
 312 011c BDEC028B 		vldm	sp!, {d8}
 313              	.LCFI2:
 314              		.cfi_remember_state
 315              		.cfi_restore 80
 316              		.cfi_restore 81
 317              		.cfi_def_cfa_offset 32
 318 0120 BDE8F883 		pop	{r3, r4, r5, r6, r7, r8, r9, pc}
 319              	.LVL17:
 320              	.L18:
 321              	.LCFI3:
 322              		.cfi_restore_state
  72:Core/Src/pid.c **** 	{
 323              		.loc 1 72 6 discriminator 2 view .LVU94
 324 0124 F1EE487A 		vneg.f32	s15, s16
 325 0128 8AE7     		b	.L4
 326              	.LVL18:
 327              	.L15:
  93:Core/Src/pid.c **** 		{
 328              		.loc 1 93 8 is_stmt 1 view .LVU95
  93:Core/Src/pid.c **** 		{
 329              		.loc 1 93 35 is_stmt 0 view .LVU96
 330 012a B1EE477A 		vneg.f32	s14, s14
  93:Core/Src/pid.c **** 		{
 331              		.loc 1 93 10 view .LVU97
 332 012e F4EEC77A 		vcmpe.f32	s15, s14
 333 0132 F1EE10FA 		vmrs	APSR_nzcv, FPSCR
 334 0136 02D5     		bpl	.L16
  95:Core/Src/pid.c **** 		}
 335              		.loc 1 95 4 is_stmt 1 view .LVU98
  95:Core/Src/pid.c **** 		}
 336              		.loc 1 95 16 is_stmt 0 view .LVU99
 337 0138 84ED0C7A 		vstr.32	s14, [r4, #48]
 338 013c ECE7     		b	.L5
 339              	.L16:
  98:Core/Src/pid.c **** 		}
 340              		.loc 1 98 4 is_stmt 1 view .LVU100
  98:Core/Src/pid.c **** 		}
 341              		.loc 1 98 16 is_stmt 0 view .LVU101
 342 013e C4ED0C7A 		vstr.32	s15, [r4, #48]
 343 0142 E9E7     		b	.L5
 344              	.L20:
 345 0144 AFF30080 		.align	3
 346              	.L19:
 347 0148 00408F40 		.word	1083129856
 348 014c 00007A44 		.word	1148846080
ARM GAS  /var/folders/w5/30yxzty101lfkjn94y0dlkk00000gn/T//ccZKr8cu.s 			page 9


 349 0150 A2923A01 		.word	20615842
 350 0154 4D84FF3F 		.word	1073710157
 351              		.cfi_endproc
 352              	.LFE164:
 354              		.section	.text.pid_init,"ax",%progbits
 355              		.align	1
 356              		.global	pid_init
 357              		.syntax unified
 358              		.thumb
 359              		.thumb_func
 361              	pid_init:
 362              	.LVL19:
 363              	.LFB165:
 106:Core/Src/pid.c **** 
 107:Core/Src/pid.c **** /*pid结构体初始化，每一个pid参数需要调用一次-----------------------------------------------------*/
 108:Core/Src/pid.c **** void pid_init(PID_TypeDef* pid)
 109:Core/Src/pid.c **** {
 364              		.loc 1 109 1 is_stmt 1 view -0
 365              		.cfi_startproc
 366              		@ args = 0, pretend = 0, frame = 0
 367              		@ frame_needed = 0, uses_anonymous_args = 0
 368              		@ link register save eliminated.
 110:Core/Src/pid.c **** 	pid->f_param_init = pid_param_init;
 369              		.loc 1 110 2 view .LVU103
 370              		.loc 1 110 20 is_stmt 0 view .LVU104
 371 0000 034B     		ldr	r3, .L22
 372 0002 C365     		str	r3, [r0, #92]
 111:Core/Src/pid.c **** 	pid->f_pid_reset = pid_reset;
 373              		.loc 1 111 2 is_stmt 1 view .LVU105
 374              		.loc 1 111 19 is_stmt 0 view .LVU106
 375 0004 034B     		ldr	r3, .L22+4
 376 0006 0366     		str	r3, [r0, #96]
 112:Core/Src/pid.c **** 	pid->f_cal_pid = pid_calculate;
 377              		.loc 1 112 2 is_stmt 1 view .LVU107
 378              		.loc 1 112 17 is_stmt 0 view .LVU108
 379 0008 034B     		ldr	r3, .L22+8
 380 000a 4366     		str	r3, [r0, #100]
 113:Core/Src/pid.c **** }
 381              		.loc 1 113 1 view .LVU109
 382 000c 7047     		bx	lr
 383              	.L23:
 384 000e 00BF     		.align	2
 385              	.L22:
 386 0010 00000000 		.word	pid_param_init
 387 0014 00000000 		.word	pid_reset
 388 0018 00000000 		.word	pid_calculate
 389              		.cfi_endproc
 390              	.LFE165:
 392              		.global	pid_yaw_speed
 393              		.section	.bss.pid_yaw_speed,"aw",%nobits
 394              		.align	2
 397              	pid_yaw_speed:
 398 0000 00000000 		.space	104
 398      00000000 
 398      00000000 
 398      00000000 
 398      00000000 
ARM GAS  /var/folders/w5/30yxzty101lfkjn94y0dlkk00000gn/T//ccZKr8cu.s 			page 10


 399              		.global	pid_roll_speed
 400              		.section	.bss.pid_roll_speed,"aw",%nobits
 401              		.align	2
 404              	pid_roll_speed:
 405 0000 00000000 		.space	104
 405      00000000 
 405      00000000 
 405      00000000 
 405      00000000 
 406              		.global	pid_roll
 407              		.section	.bss.pid_roll,"aw",%nobits
 408              		.align	2
 411              	pid_roll:
 412 0000 00000000 		.space	104
 412      00000000 
 412      00000000 
 412      00000000 
 412      00000000 
 413              		.global	pid_pithch_speed
 414              		.section	.bss.pid_pithch_speed,"aw",%nobits
 415              		.align	2
 418              	pid_pithch_speed:
 419 0000 00000000 		.space	104
 419      00000000 
 419      00000000 
 419      00000000 
 419      00000000 
 420              		.global	pid_pitch
 421              		.section	.bss.pid_pitch,"aw",%nobits
 422              		.align	2
 425              	pid_pitch:
 426 0000 00000000 		.space	104
 426      00000000 
 426      00000000 
 426      00000000 
 426      00000000 
 427              		.text
 428              	.Letext0:
 429              		.file 2 "/Applications/ArmGNUToolchain/13.3.rel1/arm-none-eabi/arm-none-eabi/include/machine/_defa
 430              		.file 3 "/Applications/ArmGNUToolchain/13.3.rel1/arm-none-eabi/arm-none-eabi/include/sys/_stdint.h
 431              		.file 4 "Core/Inc/pid.h"
 432              		.file 5 "Drivers/STM32F4xx_HAL_Driver/Inc/stm32f4xx_hal.h"
ARM GAS  /var/folders/w5/30yxzty101lfkjn94y0dlkk00000gn/T//ccZKr8cu.s 			page 11


DEFINED SYMBOLS
                            *ABS*:00000000 pid.c
/var/folders/w5/30yxzty101lfkjn94y0dlkk00000gn/T//ccZKr8cu.s:21     .text.pid_param_init:00000000 $t
/var/folders/w5/30yxzty101lfkjn94y0dlkk00000gn/T//ccZKr8cu.s:26     .text.pid_param_init:00000000 pid_param_init
/var/folders/w5/30yxzty101lfkjn94y0dlkk00000gn/T//ccZKr8cu.s:92     .text.pid_reset:00000000 $t
/var/folders/w5/30yxzty101lfkjn94y0dlkk00000gn/T//ccZKr8cu.s:97     .text.pid_reset:00000000 pid_reset
/var/folders/w5/30yxzty101lfkjn94y0dlkk00000gn/T//ccZKr8cu.s:127    .text.pid_calculate:00000000 $t
/var/folders/w5/30yxzty101lfkjn94y0dlkk00000gn/T//ccZKr8cu.s:132    .text.pid_calculate:00000000 pid_calculate
/var/folders/w5/30yxzty101lfkjn94y0dlkk00000gn/T//ccZKr8cu.s:347    .text.pid_calculate:00000148 $d
/var/folders/w5/30yxzty101lfkjn94y0dlkk00000gn/T//ccZKr8cu.s:355    .text.pid_init:00000000 $t
/var/folders/w5/30yxzty101lfkjn94y0dlkk00000gn/T//ccZKr8cu.s:361    .text.pid_init:00000000 pid_init
/var/folders/w5/30yxzty101lfkjn94y0dlkk00000gn/T//ccZKr8cu.s:386    .text.pid_init:00000010 $d
/var/folders/w5/30yxzty101lfkjn94y0dlkk00000gn/T//ccZKr8cu.s:397    .bss.pid_yaw_speed:00000000 pid_yaw_speed
/var/folders/w5/30yxzty101lfkjn94y0dlkk00000gn/T//ccZKr8cu.s:394    .bss.pid_yaw_speed:00000000 $d
/var/folders/w5/30yxzty101lfkjn94y0dlkk00000gn/T//ccZKr8cu.s:404    .bss.pid_roll_speed:00000000 pid_roll_speed
/var/folders/w5/30yxzty101lfkjn94y0dlkk00000gn/T//ccZKr8cu.s:401    .bss.pid_roll_speed:00000000 $d
/var/folders/w5/30yxzty101lfkjn94y0dlkk00000gn/T//ccZKr8cu.s:411    .bss.pid_roll:00000000 pid_roll
/var/folders/w5/30yxzty101lfkjn94y0dlkk00000gn/T//ccZKr8cu.s:408    .bss.pid_roll:00000000 $d
/var/folders/w5/30yxzty101lfkjn94y0dlkk00000gn/T//ccZKr8cu.s:418    .bss.pid_pithch_speed:00000000 pid_pithch_speed
/var/folders/w5/30yxzty101lfkjn94y0dlkk00000gn/T//ccZKr8cu.s:415    .bss.pid_pithch_speed:00000000 $d
/var/folders/w5/30yxzty101lfkjn94y0dlkk00000gn/T//ccZKr8cu.s:425    .bss.pid_pitch:00000000 pid_pitch
/var/folders/w5/30yxzty101lfkjn94y0dlkk00000gn/T//ccZKr8cu.s:422    .bss.pid_pitch:00000000 $d

UNDEFINED SYMBOLS
__aeabi_f2d
__aeabi_dmul
__aeabi_dsub
__aeabi_i2d
__aeabi_ddiv
__aeabi_dadd
__aeabi_d2f
HAL_GetTick
