ARM GAS  /var/folders/w9/l2kswtfn3fs2kslkvv5vg9sh0000gn/T//ccA6Wpp8.s 			page 1


   1              		.cpu cortex-m4
   2              		.arch armv7e-m
   3              		.fpu fpv4-sp-d16
   4              		.eabi_attribute 27, 1
   5              		.eabi_attribute 28, 1
   6              		.eabi_attribute 20, 1
   7              		.eabi_attribute 21, 1
   8              		.eabi_attribute 23, 3
   9              		.eabi_attribute 24, 1
  10              		.eabi_attribute 25, 1
  11              		.eabi_attribute 26, 1
  12              		.eabi_attribute 30, 1
  13              		.eabi_attribute 34, 1
  14              		.eabi_attribute 18, 4
  15              		.file	"ps2.c"
  16              		.text
  17              	.Ltext0:
  18              		.cfi_sections	.debug_frame
  19              		.file 1 "Core/Src/ps2.c"
  20              		.section	.text.PS2_Cmd,"ax",%progbits
  21              		.align	1
  22              		.global	PS2_Cmd
  23              		.syntax unified
  24              		.thumb
  25              		.thumb_func
  27              	PS2_Cmd:
  28              	.LVL0:
  29              	.LFB162:
   1:Core/Src/ps2.c **** //ps2.c
   2:Core/Src/ps2.c **** //2023.10.20
   3:Core/Src/ps2.c **** //by gjx
   4:Core/Src/ps2.c **** //MOSIďż˝ďż˝CMD MISOďż˝ďż˝DAT
   5:Core/Src/ps2.c **** #include "ps2.h"
   6:Core/Src/ps2.c **** 
   7:Core/Src/ps2.c **** #define DELAY_TIME HAL_Delay_us(10);
   8:Core/Src/ps2.c **** 
   9:Core/Src/ps2.c **** int PS2_LX, PS2_LY, PS2_RX, PS2_RY, PS2_KEY; //
  10:Core/Src/ps2.c **** uint16_t Handkey;
  11:Core/Src/ps2.c **** uint8_t Comd[2] = {0x01, 0x42};											  //ďż˝ďż˝ĘĽďż˝ďż˝ďż˝îˇŁďż˝ďż˝ďż˝ďż˝ďż˝ďż˝ďż˝ďż˝
  12:Core/Src/ps2.c **** uint8_t Data[9] = {0x00, 0x00, 0x00, 0x00, 0x00, 0x00, 0x00, 0x00, 0x00}; //ďż˝ďż˝ďż˝Ý´ć´˘ďż˝ďż˝ďż˝
  13:Core/Src/ps2.c **** uint16_t MASK[] = {
  14:Core/Src/ps2.c **** 	PSB_SELECT,
  15:Core/Src/ps2.c **** 	PSB_L3,
  16:Core/Src/ps2.c **** 	PSB_R3,
  17:Core/Src/ps2.c **** 	PSB_START,
  18:Core/Src/ps2.c **** 	PSB_PAD_UP,
  19:Core/Src/ps2.c **** 	PSB_PAD_RIGHT,
  20:Core/Src/ps2.c **** 	PSB_PAD_DOWN,
  21:Core/Src/ps2.c **** 	PSB_PAD_LEFT,
  22:Core/Src/ps2.c **** 	PSB_L2,
  23:Core/Src/ps2.c **** 	PSB_R2,
  24:Core/Src/ps2.c **** 	PSB_L1,
  25:Core/Src/ps2.c **** 	PSB_R1,
  26:Core/Src/ps2.c **** 	PSB_GREEN,
  27:Core/Src/ps2.c **** 	PSB_RED,
  28:Core/Src/ps2.c **** 	PSB_BLUE,
  29:Core/Src/ps2.c **** 	PSB_PINK}; //ďż˝ďż˝ďż˝ďż˝Öµďż˝ë°´ďż˝ďż˝ďż˝ďż˝
ARM GAS  /var/folders/w9/l2kswtfn3fs2kslkvv5vg9sh0000gn/T//ccA6Wpp8.s 			page 2


  30:Core/Src/ps2.c **** 
  31:Core/Src/ps2.c **** //ďż˝ďż˝ďż˝Ö±ďż˝ďż˝ďż˝ďż˝ďż˝ďż˝ďż˝ďż˝ďż˝
  32:Core/Src/ps2.c **** void PS2_Cmd(uint8_t CMD)
  33:Core/Src/ps2.c **** {
  30              		.loc 1 33 1 view -0
  31              		.cfi_startproc
  32              		@ args = 0, pretend = 0, frame = 8
  33              		@ frame_needed = 0, uses_anonymous_args = 0
  34              		.loc 1 33 1 is_stmt 0 view .LVU1
  35 0000 30B5     		push	{r4, r5, lr}
  36              	.LCFI0:
  37              		.cfi_def_cfa_offset 12
  38              		.cfi_offset 4, -12
  39              		.cfi_offset 5, -8
  40              		.cfi_offset 14, -4
  41 0002 83B0     		sub	sp, sp, #12
  42              	.LCFI1:
  43              		.cfi_def_cfa_offset 24
  44 0004 0546     		mov	r5, r0
  34:Core/Src/ps2.c **** 	volatile uint16_t ref = 0x01;
  45              		.loc 1 34 2 is_stmt 1 view .LVU2
  46              		.loc 1 34 20 is_stmt 0 view .LVU3
  47 0006 0123     		movs	r3, #1
  48 0008 ADF80630 		strh	r3, [sp, #6]	@ movhi
  35:Core/Src/ps2.c **** 	Data[1] = 0;
  49              		.loc 1 35 2 is_stmt 1 view .LVU4
  50              		.loc 1 35 10 is_stmt 0 view .LVU5
  51 000c 274A     		ldr	r2, .L9
  52 000e 0021     		movs	r1, #0
  53 0010 5170     		strb	r1, [r2, #1]
  36:Core/Src/ps2.c **** 	for (ref = 0x01; ref < 0x0100; ref <<= 1)
  54              		.loc 1 36 2 is_stmt 1 view .LVU6
  55              		.loc 1 36 11 is_stmt 0 view .LVU7
  56 0012 ADF80630 		strh	r3, [sp, #6]	@ movhi
  57              		.loc 1 36 2 view .LVU8
  58 0016 0DE0     		b	.L2
  59              	.LVL1:
  60              	.L3:
  37:Core/Src/ps2.c **** 	{
  38:Core/Src/ps2.c **** 		if (ref & CMD)
  39:Core/Src/ps2.c **** 		{
  40:Core/Src/ps2.c **** 			DO_H; //ďż˝ďż˝ďż˝Ň»Î»ďż˝ďż˝ďż˝ďż˝Î»
  41:Core/Src/ps2.c **** 		}
  42:Core/Src/ps2.c **** 		else
  43:Core/Src/ps2.c **** 			DO_L;
  61              		.loc 1 43 4 is_stmt 1 view .LVU9
  62 0018 0022     		movs	r2, #0
  63 001a 4FF40041 		mov	r1, #32768
  64 001e 2448     		ldr	r0, .L9+4
  65 0020 FFF7FEFF 		bl	HAL_GPIO_WritePin
  66              	.LVL2:
  67 0024 15E0     		b	.L4
  68              	.L5:
  36:Core/Src/ps2.c **** 	for (ref = 0x01; ref < 0x0100; ref <<= 1)
  69              		.loc 1 36 37 discriminator 2 view .LVU10
  70 0026 BDF80630 		ldrh	r3, [sp, #6]
  71 002a 9BB2     		uxth	r3, r3
ARM GAS  /var/folders/w9/l2kswtfn3fs2kslkvv5vg9sh0000gn/T//ccA6Wpp8.s 			page 3


  72 002c 5B00     		lsls	r3, r3, #1
  73 002e 9BB2     		uxth	r3, r3
  74 0030 ADF80630 		strh	r3, [sp, #6]	@ movhi
  75              	.L2:
  36:Core/Src/ps2.c **** 	for (ref = 0x01; ref < 0x0100; ref <<= 1)
  76              		.loc 1 36 23 discriminator 1 view .LVU11
  77 0034 BDF80630 		ldrh	r3, [sp, #6]
  78 0038 9BB2     		uxth	r3, r3
  79 003a FF2B     		cmp	r3, #255
  80 003c 31D8     		bhi	.L8
  38:Core/Src/ps2.c **** 		{
  81              		.loc 1 38 3 view .LVU12
  38:Core/Src/ps2.c **** 		{
  82              		.loc 1 38 11 is_stmt 0 view .LVU13
  83 003e BDF80630 		ldrh	r3, [sp, #6]
  38:Core/Src/ps2.c **** 		{
  84              		.loc 1 38 6 view .LVU14
  85 0042 1D42     		tst	r5, r3
  86 0044 E8D0     		beq	.L3
  40:Core/Src/ps2.c **** 		}
  87              		.loc 1 40 4 is_stmt 1 view .LVU15
  88 0046 0122     		movs	r2, #1
  89 0048 4FF40041 		mov	r1, #32768
  90 004c 1848     		ldr	r0, .L9+4
  91 004e FFF7FEFF 		bl	HAL_GPIO_WritePin
  92              	.LVL3:
  93              	.L4:
  44:Core/Src/ps2.c **** 
  45:Core/Src/ps2.c **** 		CLK_H; //Ę±ďż˝ďż˝ďż˝ďż˝ďż˝ďż˝
  94              		.loc 1 45 3 view .LVU16
  95 0052 174C     		ldr	r4, .L9+4
  96 0054 0122     		movs	r2, #1
  97 0056 4FF40051 		mov	r1, #8192
  98 005a 2046     		mov	r0, r4
  99 005c FFF7FEFF 		bl	HAL_GPIO_WritePin
 100              	.LVL4:
  46:Core/Src/ps2.c **** 		DELAY_TIME;
 101              		.loc 1 46 3 view .LVU17
 102 0060 0A20     		movs	r0, #10
 103 0062 FFF7FEFF 		bl	HAL_Delay_us
 104              	.LVL5:
 105              		.loc 1 46 13 discriminator 1 view .LVU18
  47:Core/Src/ps2.c **** 		CLK_L;
 106              		.loc 1 47 3 view .LVU19
 107 0066 0022     		movs	r2, #0
 108 0068 4FF40051 		mov	r1, #8192
 109 006c 2046     		mov	r0, r4
 110 006e FFF7FEFF 		bl	HAL_GPIO_WritePin
 111              	.LVL6:
  48:Core/Src/ps2.c **** 		DELAY_TIME;
 112              		.loc 1 48 3 view .LVU20
 113 0072 0A20     		movs	r0, #10
 114 0074 FFF7FEFF 		bl	HAL_Delay_us
 115              	.LVL7:
 116              		.loc 1 48 13 discriminator 1 view .LVU21
  49:Core/Src/ps2.c **** 		CLK_H;
 117              		.loc 1 49 3 view .LVU22
ARM GAS  /var/folders/w9/l2kswtfn3fs2kslkvv5vg9sh0000gn/T//ccA6Wpp8.s 			page 4


 118 0078 0122     		movs	r2, #1
 119 007a 4FF40051 		mov	r1, #8192
 120 007e 2046     		mov	r0, r4
 121 0080 FFF7FEFF 		bl	HAL_GPIO_WritePin
 122              	.LVL8:
  50:Core/Src/ps2.c **** 		if (DI)
 123              		.loc 1 50 3 view .LVU23
 124              		.loc 1 50 7 is_stmt 0 view .LVU24
 125 0084 4FF48041 		mov	r1, #16384
 126 0088 2046     		mov	r0, r4
 127 008a FFF7FEFF 		bl	HAL_GPIO_ReadPin
 128              	.LVL9:
 129              		.loc 1 50 6 discriminator 1 view .LVU25
 130 008e 0028     		cmp	r0, #0
 131 0090 C9D0     		beq	.L5
  51:Core/Src/ps2.c **** 			Data[1] = ref | Data[1];
 132              		.loc 1 51 4 is_stmt 1 view .LVU26
 133              		.loc 1 51 18 is_stmt 0 view .LVU27
 134 0092 BDF80620 		ldrh	r2, [sp, #6]
 135 0096 92B2     		uxth	r2, r2
 136              		.loc 1 51 24 view .LVU28
 137 0098 0449     		ldr	r1, .L9
 138 009a 4B78     		ldrb	r3, [r1, #1]	@ zero_extendqisi2
 139              		.loc 1 51 18 view .LVU29
 140 009c 1343     		orrs	r3, r3, r2
 141              		.loc 1 51 12 view .LVU30
 142 009e 4B70     		strb	r3, [r1, #1]
 143 00a0 C1E7     		b	.L5
 144              	.L8:
  52:Core/Src/ps2.c **** 	}
  53:Core/Src/ps2.c **** 	HAL_Delay_us(16);
 145              		.loc 1 53 2 is_stmt 1 view .LVU31
 146 00a2 1020     		movs	r0, #16
 147 00a4 FFF7FEFF 		bl	HAL_Delay_us
 148              	.LVL10:
  54:Core/Src/ps2.c **** }
 149              		.loc 1 54 1 is_stmt 0 view .LVU32
 150 00a8 03B0     		add	sp, sp, #12
 151              	.LCFI2:
 152              		.cfi_def_cfa_offset 12
 153              		@ sp needed
 154 00aa 30BD     		pop	{r4, r5, pc}
 155              	.LVL11:
 156              	.L10:
 157              		.loc 1 54 1 view .LVU33
 158              		.align	2
 159              	.L9:
 160 00ac 00000000 		.word	Data
 161 00b0 00040240 		.word	1073873920
 162              		.cfi_endproc
 163              	.LFE162:
 165              		.section	.text.PS2_RedLight,"ax",%progbits
 166              		.align	1
 167              		.global	PS2_RedLight
 168              		.syntax unified
 169              		.thumb
 170              		.thumb_func
ARM GAS  /var/folders/w9/l2kswtfn3fs2kslkvv5vg9sh0000gn/T//ccA6Wpp8.s 			page 5


 172              	PS2_RedLight:
 173              	.LFB163:
  55:Core/Src/ps2.c **** 
  56:Core/Src/ps2.c **** //ďż˝Đ¶ďż˝ďż˝Ç·ďż˝ÎŞďż˝ďż˝ďż˝ÄŁĘ˝  0x41=ÄŁďż˝ďż˝ďż˝Ěµďż˝  0x73=ÄŁďż˝ďż˝ďż˝ďż˝
  57:Core/Src/ps2.c **** //ďż˝ďż˝ďż˝ďż˝Öµďż˝ďż˝0ďż˝ďż˝ďż˝ďż˝ďż˝ÄŁĘ˝
  58:Core/Src/ps2.c **** //		  ďż˝ďż˝ďż˝ďż˝ďż˝ďż˝ďż˝ďż˝ďż˝ďż˝ÄŁĘ˝
  59:Core/Src/ps2.c **** uint8_t PS2_RedLight(void)
  60:Core/Src/ps2.c **** {
 174              		.loc 1 60 1 is_stmt 1 view -0
 175              		.cfi_startproc
 176              		@ args = 0, pretend = 0, frame = 0
 177              		@ frame_needed = 0, uses_anonymous_args = 0
 178 0000 38B5     		push	{r3, r4, r5, lr}
 179              	.LCFI3:
 180              		.cfi_def_cfa_offset 16
 181              		.cfi_offset 3, -16
 182              		.cfi_offset 4, -12
 183              		.cfi_offset 5, -8
 184              		.cfi_offset 14, -4
  61:Core/Src/ps2.c **** 	CS_L;
 185              		.loc 1 61 2 view .LVU35
 186 0002 0E4C     		ldr	r4, .L16
 187 0004 0022     		movs	r2, #0
 188 0006 4FF48051 		mov	r1, #4096
 189 000a 2046     		mov	r0, r4
 190 000c FFF7FEFF 		bl	HAL_GPIO_WritePin
 191              	.LVL12:
  62:Core/Src/ps2.c **** 	PS2_Cmd(Comd[0]); //ďż˝ďż˝ĘĽďż˝ďż˝ďż˝ďż˝
 192              		.loc 1 62 2 view .LVU36
 193 0010 0B4D     		ldr	r5, .L16+4
 194 0012 2878     		ldrb	r0, [r5]	@ zero_extendqisi2
 195 0014 FFF7FEFF 		bl	PS2_Cmd
 196              	.LVL13:
  63:Core/Src/ps2.c **** 	PS2_Cmd(Comd[1]); //ďż˝ďż˝ďż˝ďż˝ďż˝ďż˝ďż˝ďż˝
 197              		.loc 1 63 2 view .LVU37
 198 0018 6878     		ldrb	r0, [r5, #1]	@ zero_extendqisi2
 199 001a FFF7FEFF 		bl	PS2_Cmd
 200              	.LVL14:
  64:Core/Src/ps2.c **** 	CS_H;
 201              		.loc 1 64 2 view .LVU38
 202 001e 0122     		movs	r2, #1
 203 0020 4FF48051 		mov	r1, #4096
 204 0024 2046     		mov	r0, r4
 205 0026 FFF7FEFF 		bl	HAL_GPIO_WritePin
 206              	.LVL15:
  65:Core/Src/ps2.c **** 	if (Data[1] == 0X73)
 207              		.loc 1 65 2 view .LVU39
 208              		.loc 1 65 10 is_stmt 0 view .LVU40
 209 002a 064B     		ldr	r3, .L16+8
 210 002c 5B78     		ldrb	r3, [r3, #1]	@ zero_extendqisi2
 211              		.loc 1 65 5 view .LVU41
 212 002e 732B     		cmp	r3, #115
 213 0030 01D0     		beq	.L15
  66:Core/Src/ps2.c **** 		return 0;
  67:Core/Src/ps2.c **** 	else
  68:Core/Src/ps2.c **** 		return 1;
 214              		.loc 1 68 10 view .LVU42
ARM GAS  /var/folders/w9/l2kswtfn3fs2kslkvv5vg9sh0000gn/T//ccA6Wpp8.s 			page 6


 215 0032 0120     		movs	r0, #1
 216              	.L12:
  69:Core/Src/ps2.c **** }
 217              		.loc 1 69 1 view .LVU43
 218 0034 38BD     		pop	{r3, r4, r5, pc}
 219              	.L15:
  66:Core/Src/ps2.c **** 		return 0;
 220              		.loc 1 66 10 view .LVU44
 221 0036 0020     		movs	r0, #0
 222 0038 FCE7     		b	.L12
 223              	.L17:
 224 003a 00BF     		.align	2
 225              	.L16:
 226 003c 00040240 		.word	1073873920
 227 0040 00000000 		.word	Comd
 228 0044 00000000 		.word	Data
 229              		.cfi_endproc
 230              	.LFE163:
 232              		.section	.text.PS2_ReadData,"ax",%progbits
 233              		.align	1
 234              		.global	PS2_ReadData
 235              		.syntax unified
 236              		.thumb
 237              		.thumb_func
 239              	PS2_ReadData:
 240              	.LFB164:
  70:Core/Src/ps2.c **** 
  71:Core/Src/ps2.c **** //ďż˝ďż˝Čˇďż˝Ö±ďż˝ďż˝ďż˝ďż˝ďż˝
  72:Core/Src/ps2.c **** void PS2_ReadData(void)
  73:Core/Src/ps2.c **** {
 241              		.loc 1 73 1 is_stmt 1 view -0
 242              		.cfi_startproc
 243              		@ args = 0, pretend = 0, frame = 8
 244              		@ frame_needed = 0, uses_anonymous_args = 0
 245 0000 10B5     		push	{r4, lr}
 246              	.LCFI4:
 247              		.cfi_def_cfa_offset 8
 248              		.cfi_offset 4, -8
 249              		.cfi_offset 14, -4
 250 0002 82B0     		sub	sp, sp, #8
 251              	.LCFI5:
 252              		.cfi_def_cfa_offset 16
  74:Core/Src/ps2.c **** 	volatile uint8_t byte = 0;
 253              		.loc 1 74 2 view .LVU46
 254              		.loc 1 74 19 is_stmt 0 view .LVU47
 255 0004 0022     		movs	r2, #0
 256 0006 8DF80720 		strb	r2, [sp, #7]
  75:Core/Src/ps2.c **** 	volatile uint16_t ref = 0x01;
 257              		.loc 1 75 2 is_stmt 1 view .LVU48
 258              		.loc 1 75 20 is_stmt 0 view .LVU49
 259 000a 0123     		movs	r3, #1
 260 000c ADF80430 		strh	r3, [sp, #4]	@ movhi
  76:Core/Src/ps2.c **** 	CS_L;
 261              		.loc 1 76 2 is_stmt 1 view .LVU50
 262 0010 4FF48051 		mov	r1, #4096
 263 0014 2F48     		ldr	r0, .L27
 264 0016 FFF7FEFF 		bl	HAL_GPIO_WritePin
ARM GAS  /var/folders/w9/l2kswtfn3fs2kslkvv5vg9sh0000gn/T//ccA6Wpp8.s 			page 7


 265              	.LVL16:
  77:Core/Src/ps2.c **** 	PS2_Cmd(Comd[0]);				 //ďż˝ďż˝ĘĽďż˝ďż˝ďż˝ďż˝
 266              		.loc 1 77 2 view .LVU51
 267 001a 2F4C     		ldr	r4, .L27+4
 268 001c 2078     		ldrb	r0, [r4]	@ zero_extendqisi2
 269 001e FFF7FEFF 		bl	PS2_Cmd
 270              	.LVL17:
  78:Core/Src/ps2.c **** 	PS2_Cmd(Comd[1]);				 //ďż˝ďż˝ďż˝ďż˝ďż˝ďż˝ďż˝ďż˝
 271              		.loc 1 78 2 view .LVU52
 272 0022 6078     		ldrb	r0, [r4, #1]	@ zero_extendqisi2
 273 0024 FFF7FEFF 		bl	PS2_Cmd
 274              	.LVL18:
  79:Core/Src/ps2.c **** 	for (byte = 2; byte < 9; byte++) //ďż˝ďż˝ĘĽďż˝ďż˝ďż˝ďż˝ďż˝ďż˝ďż˝ďż˝
 275              		.loc 1 79 2 view .LVU53
 276              		.loc 1 79 12 is_stmt 0 view .LVU54
 277 0028 0223     		movs	r3, #2
 278 002a 8DF80730 		strb	r3, [sp, #7]
 279              		.loc 1 79 2 view .LVU55
 280 002e 40E0     		b	.L19
 281              	.L21:
  80:Core/Src/ps2.c **** 	{
  81:Core/Src/ps2.c **** 		for (ref = 0x01; ref < 0x100; ref <<= 1)
 282              		.loc 1 81 37 is_stmt 1 discriminator 2 view .LVU56
 283 0030 BDF80430 		ldrh	r3, [sp, #4]
 284 0034 9BB2     		uxth	r3, r3
 285 0036 5B00     		lsls	r3, r3, #1
 286 0038 9BB2     		uxth	r3, r3
 287 003a ADF80430 		strh	r3, [sp, #4]	@ movhi
 288              	.L20:
 289              		.loc 1 81 24 discriminator 1 view .LVU57
 290 003e BDF80430 		ldrh	r3, [sp, #4]
 291 0042 9BB2     		uxth	r3, r3
 292 0044 FF2B     		cmp	r3, #255
 293 0046 2BD8     		bhi	.L25
  82:Core/Src/ps2.c **** 		{
  83:Core/Src/ps2.c **** 			CLK_H;
 294              		.loc 1 83 4 view .LVU58
 295 0048 224C     		ldr	r4, .L27
 296 004a 0122     		movs	r2, #1
 297 004c 4FF40051 		mov	r1, #8192
 298 0050 2046     		mov	r0, r4
 299 0052 FFF7FEFF 		bl	HAL_GPIO_WritePin
 300              	.LVL19:
  84:Core/Src/ps2.c **** 			DELAY_TIME;
 301              		.loc 1 84 4 view .LVU59
 302 0056 0A20     		movs	r0, #10
 303 0058 FFF7FEFF 		bl	HAL_Delay_us
 304              	.LVL20:
 305              		.loc 1 84 14 discriminator 1 view .LVU60
  85:Core/Src/ps2.c **** 			CLK_L;
 306              		.loc 1 85 4 view .LVU61
 307 005c 0022     		movs	r2, #0
 308 005e 4FF40051 		mov	r1, #8192
 309 0062 2046     		mov	r0, r4
 310 0064 FFF7FEFF 		bl	HAL_GPIO_WritePin
 311              	.LVL21:
  86:Core/Src/ps2.c **** 			DELAY_TIME;
ARM GAS  /var/folders/w9/l2kswtfn3fs2kslkvv5vg9sh0000gn/T//ccA6Wpp8.s 			page 8


 312              		.loc 1 86 4 view .LVU62
 313 0068 0A20     		movs	r0, #10
 314 006a FFF7FEFF 		bl	HAL_Delay_us
 315              	.LVL22:
 316              		.loc 1 86 14 discriminator 1 view .LVU63
  87:Core/Src/ps2.c **** 			CLK_H;
 317              		.loc 1 87 4 view .LVU64
 318 006e 0122     		movs	r2, #1
 319 0070 4FF40051 		mov	r1, #8192
 320 0074 2046     		mov	r0, r4
 321 0076 FFF7FEFF 		bl	HAL_GPIO_WritePin
 322              	.LVL23:
  88:Core/Src/ps2.c **** 			if (DI)
 323              		.loc 1 88 4 view .LVU65
 324              		.loc 1 88 8 is_stmt 0 view .LVU66
 325 007a 4FF48041 		mov	r1, #16384
 326 007e 2046     		mov	r0, r4
 327 0080 FFF7FEFF 		bl	HAL_GPIO_ReadPin
 328              	.LVL24:
 329              		.loc 1 88 7 discriminator 1 view .LVU67
 330 0084 0028     		cmp	r0, #0
 331 0086 D3D0     		beq	.L21
  89:Core/Src/ps2.c **** 				Data[byte] = ref | Data[byte];
 332              		.loc 1 89 5 is_stmt 1 view .LVU68
 333              		.loc 1 89 22 is_stmt 0 view .LVU69
 334 0088 BDF80420 		ldrh	r2, [sp, #4]
 335 008c 92B2     		uxth	r2, r2
 336              		.loc 1 89 28 view .LVU70
 337 008e 9DF80730 		ldrb	r3, [sp, #7]	@ zero_extendqisi2
 338 0092 1249     		ldr	r1, .L27+8
 339 0094 CB5C     		ldrb	r3, [r1, r3]	@ zero_extendqisi2
 340              		.loc 1 89 9 view .LVU71
 341 0096 9DF80700 		ldrb	r0, [sp, #7]	@ zero_extendqisi2
 342              		.loc 1 89 22 view .LVU72
 343 009a 1343     		orrs	r3, r3, r2
 344              		.loc 1 89 16 view .LVU73
 345 009c 0B54     		strb	r3, [r1, r0]
 346 009e C7E7     		b	.L21
 347              	.L25:
  90:Core/Src/ps2.c **** 		}
  91:Core/Src/ps2.c **** 		HAL_Delay_us(16);
 348              		.loc 1 91 3 is_stmt 1 view .LVU74
 349 00a0 1020     		movs	r0, #16
 350 00a2 FFF7FEFF 		bl	HAL_Delay_us
 351              	.LVL25:
  79:Core/Src/ps2.c **** 	{
 352              		.loc 1 79 31 discriminator 2 view .LVU75
 353 00a6 9DF80730 		ldrb	r3, [sp, #7]	@ zero_extendqisi2
 354 00aa 0133     		adds	r3, r3, #1
 355 00ac DBB2     		uxtb	r3, r3
 356 00ae 8DF80730 		strb	r3, [sp, #7]
 357              	.L19:
  79:Core/Src/ps2.c **** 	{
 358              		.loc 1 79 22 discriminator 1 view .LVU76
 359 00b2 9DF80730 		ldrb	r3, [sp, #7]	@ zero_extendqisi2
 360 00b6 082B     		cmp	r3, #8
 361 00b8 03D8     		bhi	.L26
ARM GAS  /var/folders/w9/l2kswtfn3fs2kslkvv5vg9sh0000gn/T//ccA6Wpp8.s 			page 9


  81:Core/Src/ps2.c **** 		{
 362              		.loc 1 81 3 view .LVU77
  81:Core/Src/ps2.c **** 		{
 363              		.loc 1 81 12 is_stmt 0 view .LVU78
 364 00ba 0123     		movs	r3, #1
 365 00bc ADF80430 		strh	r3, [sp, #4]	@ movhi
  81:Core/Src/ps2.c **** 		{
 366              		.loc 1 81 3 view .LVU79
 367 00c0 BDE7     		b	.L20
 368              	.L26:
  92:Core/Src/ps2.c **** 	}
  93:Core/Src/ps2.c **** 	CS_H;
 369              		.loc 1 93 2 is_stmt 1 view .LVU80
 370 00c2 0122     		movs	r2, #1
 371 00c4 4FF48051 		mov	r1, #4096
 372 00c8 0248     		ldr	r0, .L27
 373 00ca FFF7FEFF 		bl	HAL_GPIO_WritePin
 374              	.LVL26:
  94:Core/Src/ps2.c **** }
 375              		.loc 1 94 1 is_stmt 0 view .LVU81
 376 00ce 02B0     		add	sp, sp, #8
 377              	.LCFI6:
 378              		.cfi_def_cfa_offset 8
 379              		@ sp needed
 380 00d0 10BD     		pop	{r4, pc}
 381              	.L28:
 382 00d2 00BF     		.align	2
 383              	.L27:
 384 00d4 00040240 		.word	1073873920
 385 00d8 00000000 		.word	Comd
 386 00dc 00000000 		.word	Data
 387              		.cfi_endproc
 388              	.LFE164:
 390              		.section	.text.PS2_AnologData,"ax",%progbits
 391              		.align	1
 392              		.global	PS2_AnologData
 393              		.syntax unified
 394              		.thumb
 395              		.thumb_func
 397              	PS2_AnologData:
 398              	.LVL27:
 399              	.LFB166:
  95:Core/Src/ps2.c **** 
  96:Core/Src/ps2.c **** //ďż˝Ô¶ďż˝ďż˝ďż˝ďż˝ďż˝ďż˝ďż˝PS2ďż˝ďż˝ďż˝ďż˝ďż˝Ý˝ďż˝ďż˝Đ´ďż˝ďż˝ďż˝      Ö»ďż˝ďż˝ďż˝ďż˝ďż˝Ë°ďż˝ďż˝ďż˝
  97:Core/Src/ps2.c **** //ďż˝ďż˝ďż˝ďż˝ÎŞ0ďż˝ďż˝ Î´ďż˝ďż˝ďż˝ďż˝ÎŞ1
  98:Core/Src/ps2.c **** uint8_t PS2_DataKey()
  99:Core/Src/ps2.c **** {
 100:Core/Src/ps2.c **** 	uint8_t index;
 101:Core/Src/ps2.c **** 
 102:Core/Src/ps2.c **** 	PS2_ClearData();
 103:Core/Src/ps2.c **** 	PS2_ReadData();
 104:Core/Src/ps2.c **** 
 105:Core/Src/ps2.c **** 	Handkey = (Data[4] << 8) | Data[3]; //ďż˝ďż˝ďż˝ďż˝16ďż˝ďż˝ďż˝ďż˝ďż˝ďż˝  ďż˝ďż˝ďż˝ďż˝ÎŞ0ďż˝ďż˝ Î´ďż
 106:Core/Src/ps2.c **** 	for (index = 0; index < 16; index++)
 107:Core/Src/ps2.c **** 	{
 108:Core/Src/ps2.c **** 		if ((Handkey & (1 << (MASK[index] - 1))) == 0)
 109:Core/Src/ps2.c **** 			return index + 1;
ARM GAS  /var/folders/w9/l2kswtfn3fs2kslkvv5vg9sh0000gn/T//ccA6Wpp8.s 			page 10


 110:Core/Src/ps2.c **** 	}
 111:Core/Src/ps2.c **** 	return 0; //Ă»ďż˝ďż˝ďż˝ÎşÎ°ďż˝ďż˝ďż˝ďż˝ďż˝ďż˝ďż˝
 112:Core/Src/ps2.c **** }
 113:Core/Src/ps2.c **** 
 114:Core/Src/ps2.c **** //ďż˝Ăµďż˝Ň»ďż˝ďż˝Ňˇďż˝Ëµďż˝ÄŁďż˝ďż˝ďż˝ďż˝	 ďż˝ďż˝Î§0~256
 115:Core/Src/ps2.c **** uint8_t PS2_AnologData(uint8_t button)
 116:Core/Src/ps2.c **** {
 400              		.loc 1 116 1 is_stmt 1 view -0
 401              		.cfi_startproc
 402              		@ args = 0, pretend = 0, frame = 0
 403              		@ frame_needed = 0, uses_anonymous_args = 0
 404              		@ link register save eliminated.
 117:Core/Src/ps2.c **** 	return Data[button];
 405              		.loc 1 117 2 view .LVU83
 118:Core/Src/ps2.c **** }
 406              		.loc 1 118 1 is_stmt 0 view .LVU84
 407 0000 014B     		ldr	r3, .L30
 408 0002 185C     		ldrb	r0, [r3, r0]	@ zero_extendqisi2
 409              	.LVL28:
 410              		.loc 1 118 1 view .LVU85
 411 0004 7047     		bx	lr
 412              	.L31:
 413 0006 00BF     		.align	2
 414              	.L30:
 415 0008 00000000 		.word	Data
 416              		.cfi_endproc
 417              	.LFE166:
 419              		.section	.text.PS2_ClearData,"ax",%progbits
 420              		.align	1
 421              		.global	PS2_ClearData
 422              		.syntax unified
 423              		.thumb
 424              		.thumb_func
 426              	PS2_ClearData:
 427              	.LFB167:
 119:Core/Src/ps2.c **** 
 120:Core/Src/ps2.c **** //ďż˝ďż˝ďż˝ďż˝ďż˝ďż˝Ý»ďż˝ďż˝ďż˝ďż˝ďż˝
 121:Core/Src/ps2.c **** void PS2_ClearData()
 122:Core/Src/ps2.c **** {
 428              		.loc 1 122 1 is_stmt 1 view -0
 429              		.cfi_startproc
 430              		@ args = 0, pretend = 0, frame = 0
 431              		@ frame_needed = 0, uses_anonymous_args = 0
 432              		@ link register save eliminated.
 123:Core/Src/ps2.c **** 	uint8_t a;
 433              		.loc 1 123 2 view .LVU87
 124:Core/Src/ps2.c **** 	for (a = 0; a < 9; a++)
 434              		.loc 1 124 2 view .LVU88
 435              	.LVL29:
 436              		.loc 1 124 9 is_stmt 0 view .LVU89
 437 0000 0023     		movs	r3, #0
 438              		.loc 1 124 2 view .LVU90
 439 0002 04E0     		b	.L33
 440              	.LVL30:
 441              	.L34:
 125:Core/Src/ps2.c **** 		Data[a] = 0x00;
 442              		.loc 1 125 3 is_stmt 1 view .LVU91
ARM GAS  /var/folders/w9/l2kswtfn3fs2kslkvv5vg9sh0000gn/T//ccA6Wpp8.s 			page 11


 443              		.loc 1 125 11 is_stmt 0 view .LVU92
 444 0004 034A     		ldr	r2, .L35
 445 0006 0021     		movs	r1, #0
 446 0008 D154     		strb	r1, [r2, r3]
 124:Core/Src/ps2.c **** 	for (a = 0; a < 9; a++)
 447              		.loc 1 124 22 is_stmt 1 discriminator 3 view .LVU93
 448 000a 0133     		adds	r3, r3, #1
 449              	.LVL31:
 124:Core/Src/ps2.c **** 	for (a = 0; a < 9; a++)
 450              		.loc 1 124 22 is_stmt 0 discriminator 3 view .LVU94
 451 000c DBB2     		uxtb	r3, r3
 452              	.LVL32:
 453              	.L33:
 124:Core/Src/ps2.c **** 	for (a = 0; a < 9; a++)
 454              		.loc 1 124 16 is_stmt 1 discriminator 1 view .LVU95
 455 000e 082B     		cmp	r3, #8
 456 0010 F8D9     		bls	.L34
 126:Core/Src/ps2.c **** }
 457              		.loc 1 126 1 is_stmt 0 view .LVU96
 458 0012 7047     		bx	lr
 459              	.L36:
 460              		.align	2
 461              	.L35:
 462 0014 00000000 		.word	Data
 463              		.cfi_endproc
 464              	.LFE167:
 466              		.section	.text.PS2_DataKey,"ax",%progbits
 467              		.align	1
 468              		.global	PS2_DataKey
 469              		.syntax unified
 470              		.thumb
 471              		.thumb_func
 473              	PS2_DataKey:
 474              	.LFB165:
  99:Core/Src/ps2.c **** 	uint8_t index;
 475              		.loc 1 99 1 is_stmt 1 view -0
 476              		.cfi_startproc
 477              		@ args = 0, pretend = 0, frame = 0
 478              		@ frame_needed = 0, uses_anonymous_args = 0
 479 0000 08B5     		push	{r3, lr}
 480              	.LCFI7:
 481              		.cfi_def_cfa_offset 8
 482              		.cfi_offset 3, -8
 483              		.cfi_offset 14, -4
 100:Core/Src/ps2.c **** 
 484              		.loc 1 100 2 view .LVU98
 102:Core/Src/ps2.c **** 	PS2_ReadData();
 485              		.loc 1 102 2 view .LVU99
 486 0002 FFF7FEFF 		bl	PS2_ClearData
 487              	.LVL33:
 103:Core/Src/ps2.c **** 
 488              		.loc 1 103 2 view .LVU100
 489 0006 FFF7FEFF 		bl	PS2_ReadData
 490              	.LVL34:
 105:Core/Src/ps2.c **** 	for (index = 0; index < 16; index++)
 491              		.loc 1 105 2 view .LVU101
 105:Core/Src/ps2.c **** 	for (index = 0; index < 16; index++)
ARM GAS  /var/folders/w9/l2kswtfn3fs2kslkvv5vg9sh0000gn/T//ccA6Wpp8.s 			page 12


 492              		.loc 1 105 17 is_stmt 0 view .LVU102
 493 000a 0D4B     		ldr	r3, .L45
 494 000c 1A79     		ldrb	r2, [r3, #4]	@ zero_extendqisi2
 105:Core/Src/ps2.c **** 	for (index = 0; index < 16; index++)
 495              		.loc 1 105 33 view .LVU103
 496 000e D978     		ldrb	r1, [r3, #3]	@ zero_extendqisi2
 105:Core/Src/ps2.c **** 	for (index = 0; index < 16; index++)
 497              		.loc 1 105 27 view .LVU104
 498 0010 41EA0221 		orr	r1, r1, r2, lsl #8
 105:Core/Src/ps2.c **** 	for (index = 0; index < 16; index++)
 499              		.loc 1 105 10 view .LVU105
 500 0014 0B4B     		ldr	r3, .L45+4
 501 0016 1980     		strh	r1, [r3]	@ movhi
 106:Core/Src/ps2.c **** 	{
 502              		.loc 1 106 2 is_stmt 1 view .LVU106
 503              	.LVL35:
 106:Core/Src/ps2.c **** 	{
 504              		.loc 1 106 13 is_stmt 0 view .LVU107
 505 0018 0023     		movs	r3, #0
 506              	.LVL36:
 507              	.L38:
 106:Core/Src/ps2.c **** 	{
 508              		.loc 1 106 24 is_stmt 1 discriminator 1 view .LVU108
 509 001a 0F2B     		cmp	r3, #15
 510 001c 0ED8     		bhi	.L43
 108:Core/Src/ps2.c **** 			return index + 1;
 511              		.loc 1 108 3 view .LVU109
 108:Core/Src/ps2.c **** 			return index + 1;
 512              		.loc 1 108 29 is_stmt 0 view .LVU110
 513 001e 0A4A     		ldr	r2, .L45+8
 514 0020 32F81320 		ldrh	r2, [r2, r3, lsl #1]
 108:Core/Src/ps2.c **** 			return index + 1;
 515              		.loc 1 108 37 view .LVU111
 516 0024 013A     		subs	r2, r2, #1
 108:Core/Src/ps2.c **** 			return index + 1;
 517              		.loc 1 108 44 view .LVU112
 518 0026 41FA02F2 		asr	r2, r1, r2
 108:Core/Src/ps2.c **** 			return index + 1;
 519              		.loc 1 108 6 view .LVU113
 520 002a 12F0010F 		tst	r2, #1
 521 002e 02D0     		beq	.L44
 106:Core/Src/ps2.c **** 	{
 522              		.loc 1 106 35 is_stmt 1 discriminator 2 view .LVU114
 523 0030 0133     		adds	r3, r3, #1
 524              	.LVL37:
 106:Core/Src/ps2.c **** 	{
 525              		.loc 1 106 35 is_stmt 0 discriminator 2 view .LVU115
 526 0032 DBB2     		uxtb	r3, r3
 527              	.LVL38:
 106:Core/Src/ps2.c **** 	{
 528              		.loc 1 106 35 discriminator 2 view .LVU116
 529 0034 F1E7     		b	.L38
 530              	.LVL39:
 531              	.L44:
 109:Core/Src/ps2.c **** 	}
 532              		.loc 1 109 4 is_stmt 1 view .LVU117
 109:Core/Src/ps2.c **** 	}
ARM GAS  /var/folders/w9/l2kswtfn3fs2kslkvv5vg9sh0000gn/T//ccA6Wpp8.s 			page 13


 533              		.loc 1 109 17 is_stmt 0 view .LVU118
 534 0036 0133     		adds	r3, r3, #1
 535              	.LVL40:
 109:Core/Src/ps2.c **** 	}
 536              		.loc 1 109 17 view .LVU119
 537 0038 D8B2     		uxtb	r0, r3
 538 003a 00E0     		b	.L40
 539              	.LVL41:
 540              	.L43:
 111:Core/Src/ps2.c **** }
 541              		.loc 1 111 9 view .LVU120
 542 003c 0020     		movs	r0, #0
 543              	.LVL42:
 544              	.L40:
 112:Core/Src/ps2.c **** 
 545              		.loc 1 112 1 view .LVU121
 546 003e 08BD     		pop	{r3, pc}
 547              	.L46:
 548              		.align	2
 549              	.L45:
 550 0040 00000000 		.word	Data
 551 0044 00000000 		.word	Handkey
 552 0048 00000000 		.word	MASK
 553              		.cfi_endproc
 554              	.LFE165:
 556              		.section	.text.PS2_ShortPoll,"ax",%progbits
 557              		.align	1
 558              		.global	PS2_ShortPoll
 559              		.syntax unified
 560              		.thumb
 561              		.thumb_func
 563              	PS2_ShortPoll:
 564              	.LFB168:
 127:Core/Src/ps2.c **** 
 128:Core/Src/ps2.c **** //void delay_init(uint8_t SYSCLK)
 129:Core/Src/ps2.c **** //{
 130:Core/Src/ps2.c **** //	SysTick->CTRL&=0xfffffffb;//bit2ďż˝ďż˝ďż˝,Ńˇďż˝ďż˝ďż˝â˛żĘ±ďż˝ďż˝  HCLK/8
 131:Core/Src/ps2.c **** //	fac_us=SYSCLK/8;
 132:Core/Src/ps2.c **** //}
 133:Core/Src/ps2.c **** 
 134:Core/Src/ps2.c **** //void HAL_Delay_us(uint32_t nus)
 135:Core/Src/ps2.c **** //{
 136:Core/Src/ps2.c **** //	uint32_t temp;
 137:Core/Src/ps2.c **** //	SysTick->LOAD=nus*fac_us; //Ę±ďż˝ďż˝ďż˝ďż˝ďż˝
 138:Core/Src/ps2.c **** //	SysTick->VAL=0x00;        //ďż˝ďż˝ŐĽďż˝ďż˝ďż˝ďż˝ďż˝
 139:Core/Src/ps2.c **** //	SysTick->CTRL=0x01 ;      //ďż˝ďż˝ĘĽďż˝ďż˝ďż˝ďż˝
 140:Core/Src/ps2.c **** //	do
 141:Core/Src/ps2.c **** //	{
 142:Core/Src/ps2.c **** //		temp=SysTick->CTRL;
 143:Core/Src/ps2.c **** //	}
 144:Core/Src/ps2.c **** //	while(temp&0x01&&!(temp&(1<<16)));//ďż˝Č´ďż˝Ę±ďż˝äµ˝ďż˝ďż˝
 145:Core/Src/ps2.c **** //	SysTick->CTRL=0x00;       //ďż˝Ř±ŐĽďż˝ďż˝ďż˝ďż˝ďż˝
 146:Core/Src/ps2.c **** //	SysTick->VAL =0X00;       //ďż˝ďż˝ŐĽďż˝ďż˝ďż˝ďż˝ďż˝
 147:Core/Src/ps2.c **** //}
 148:Core/Src/ps2.c **** 
 149:Core/Src/ps2.c **** //short poll
 150:Core/Src/ps2.c **** void PS2_ShortPoll(void)
ARM GAS  /var/folders/w9/l2kswtfn3fs2kslkvv5vg9sh0000gn/T//ccA6Wpp8.s 			page 14


 151:Core/Src/ps2.c **** {
 565              		.loc 1 151 1 is_stmt 1 view -0
 566              		.cfi_startproc
 567              		@ args = 0, pretend = 0, frame = 0
 568              		@ frame_needed = 0, uses_anonymous_args = 0
 569 0000 10B5     		push	{r4, lr}
 570              	.LCFI8:
 571              		.cfi_def_cfa_offset 8
 572              		.cfi_offset 4, -8
 573              		.cfi_offset 14, -4
 152:Core/Src/ps2.c **** 	CS_L;
 574              		.loc 1 152 2 view .LVU123
 575 0002 114C     		ldr	r4, .L49
 576 0004 0022     		movs	r2, #0
 577 0006 4FF48051 		mov	r1, #4096
 578 000a 2046     		mov	r0, r4
 579 000c FFF7FEFF 		bl	HAL_GPIO_WritePin
 580              	.LVL43:
 153:Core/Src/ps2.c **** 	HAL_Delay_us(16);
 581              		.loc 1 153 2 view .LVU124
 582 0010 1020     		movs	r0, #16
 583 0012 FFF7FEFF 		bl	HAL_Delay_us
 584              	.LVL44:
 154:Core/Src/ps2.c **** 	PS2_Cmd(0x01);
 585              		.loc 1 154 2 view .LVU125
 586 0016 0120     		movs	r0, #1
 587 0018 FFF7FEFF 		bl	PS2_Cmd
 588              	.LVL45:
 155:Core/Src/ps2.c **** 	PS2_Cmd(0x42);
 589              		.loc 1 155 2 view .LVU126
 590 001c 4220     		movs	r0, #66
 591 001e FFF7FEFF 		bl	PS2_Cmd
 592              	.LVL46:
 156:Core/Src/ps2.c **** 	PS2_Cmd(0X00);
 593              		.loc 1 156 2 view .LVU127
 594 0022 0020     		movs	r0, #0
 595 0024 FFF7FEFF 		bl	PS2_Cmd
 596              	.LVL47:
 157:Core/Src/ps2.c **** 	PS2_Cmd(0x00);
 597              		.loc 1 157 2 view .LVU128
 598 0028 0020     		movs	r0, #0
 599 002a FFF7FEFF 		bl	PS2_Cmd
 600              	.LVL48:
 158:Core/Src/ps2.c **** 	PS2_Cmd(0x00);
 601              		.loc 1 158 2 view .LVU129
 602 002e 0020     		movs	r0, #0
 603 0030 FFF7FEFF 		bl	PS2_Cmd
 604              	.LVL49:
 159:Core/Src/ps2.c **** 	CS_H;
 605              		.loc 1 159 2 view .LVU130
 606 0034 0122     		movs	r2, #1
 607 0036 4FF48051 		mov	r1, #4096
 608 003a 2046     		mov	r0, r4
 609 003c FFF7FEFF 		bl	HAL_GPIO_WritePin
 610              	.LVL50:
 160:Core/Src/ps2.c **** 	HAL_Delay_us(16);
 611              		.loc 1 160 2 view .LVU131
ARM GAS  /var/folders/w9/l2kswtfn3fs2kslkvv5vg9sh0000gn/T//ccA6Wpp8.s 			page 15


 612 0040 1020     		movs	r0, #16
 613 0042 FFF7FEFF 		bl	HAL_Delay_us
 614              	.LVL51:
 161:Core/Src/ps2.c **** }
 615              		.loc 1 161 1 is_stmt 0 view .LVU132
 616 0046 10BD     		pop	{r4, pc}
 617              	.L50:
 618              		.align	2
 619              	.L49:
 620 0048 00040240 		.word	1073873920
 621              		.cfi_endproc
 622              	.LFE168:
 624              		.section	.text.PS2_EnterConfing,"ax",%progbits
 625              		.align	1
 626              		.global	PS2_EnterConfing
 627              		.syntax unified
 628              		.thumb
 629              		.thumb_func
 631              	PS2_EnterConfing:
 632              	.LFB169:
 162:Core/Src/ps2.c **** 
 163:Core/Src/ps2.c **** //ďż˝ďż˝ďż˝ďż˝ďż˝ďż˝ďż˝ďż˝
 164:Core/Src/ps2.c **** void PS2_EnterConfing(void)
 165:Core/Src/ps2.c **** {
 633              		.loc 1 165 1 is_stmt 1 view -0
 634              		.cfi_startproc
 635              		@ args = 0, pretend = 0, frame = 0
 636              		@ frame_needed = 0, uses_anonymous_args = 0
 637 0000 10B5     		push	{r4, lr}
 638              	.LCFI9:
 639              		.cfi_def_cfa_offset 8
 640              		.cfi_offset 4, -8
 641              		.cfi_offset 14, -4
 166:Core/Src/ps2.c **** 	CS_L;
 642              		.loc 1 166 2 view .LVU134
 643 0002 174C     		ldr	r4, .L53
 644 0004 0022     		movs	r2, #0
 645 0006 4FF48051 		mov	r1, #4096
 646 000a 2046     		mov	r0, r4
 647 000c FFF7FEFF 		bl	HAL_GPIO_WritePin
 648              	.LVL52:
 167:Core/Src/ps2.c **** 	HAL_Delay_us(16);
 649              		.loc 1 167 2 view .LVU135
 650 0010 1020     		movs	r0, #16
 651 0012 FFF7FEFF 		bl	HAL_Delay_us
 652              	.LVL53:
 168:Core/Src/ps2.c **** 	PS2_Cmd(0x01);
 653              		.loc 1 168 2 view .LVU136
 654 0016 0120     		movs	r0, #1
 655 0018 FFF7FEFF 		bl	PS2_Cmd
 656              	.LVL54:
 169:Core/Src/ps2.c **** 	PS2_Cmd(0x43);
 657              		.loc 1 169 2 view .LVU137
 658 001c 4320     		movs	r0, #67
 659 001e FFF7FEFF 		bl	PS2_Cmd
 660              	.LVL55:
 170:Core/Src/ps2.c **** 	PS2_Cmd(0X00);
ARM GAS  /var/folders/w9/l2kswtfn3fs2kslkvv5vg9sh0000gn/T//ccA6Wpp8.s 			page 16


 661              		.loc 1 170 2 view .LVU138
 662 0022 0020     		movs	r0, #0
 663 0024 FFF7FEFF 		bl	PS2_Cmd
 664              	.LVL56:
 171:Core/Src/ps2.c **** 	PS2_Cmd(0x01);
 665              		.loc 1 171 2 view .LVU139
 666 0028 0120     		movs	r0, #1
 667 002a FFF7FEFF 		bl	PS2_Cmd
 668              	.LVL57:
 172:Core/Src/ps2.c **** 	PS2_Cmd(0x00);
 669              		.loc 1 172 2 view .LVU140
 670 002e 0020     		movs	r0, #0
 671 0030 FFF7FEFF 		bl	PS2_Cmd
 672              	.LVL58:
 173:Core/Src/ps2.c **** 	PS2_Cmd(0X00);
 673              		.loc 1 173 2 view .LVU141
 674 0034 0020     		movs	r0, #0
 675 0036 FFF7FEFF 		bl	PS2_Cmd
 676              	.LVL59:
 174:Core/Src/ps2.c **** 	PS2_Cmd(0X00);
 677              		.loc 1 174 2 view .LVU142
 678 003a 0020     		movs	r0, #0
 679 003c FFF7FEFF 		bl	PS2_Cmd
 680              	.LVL60:
 175:Core/Src/ps2.c **** 	PS2_Cmd(0X00);
 681              		.loc 1 175 2 view .LVU143
 682 0040 0020     		movs	r0, #0
 683 0042 FFF7FEFF 		bl	PS2_Cmd
 684              	.LVL61:
 176:Core/Src/ps2.c **** 	PS2_Cmd(0X00);
 685              		.loc 1 176 2 view .LVU144
 686 0046 0020     		movs	r0, #0
 687 0048 FFF7FEFF 		bl	PS2_Cmd
 688              	.LVL62:
 177:Core/Src/ps2.c **** 	CS_H;
 689              		.loc 1 177 2 view .LVU145
 690 004c 0122     		movs	r2, #1
 691 004e 4FF48051 		mov	r1, #4096
 692 0052 2046     		mov	r0, r4
 693 0054 FFF7FEFF 		bl	HAL_GPIO_WritePin
 694              	.LVL63:
 178:Core/Src/ps2.c **** 	HAL_Delay_us(16);
 695              		.loc 1 178 2 view .LVU146
 696 0058 1020     		movs	r0, #16
 697 005a FFF7FEFF 		bl	HAL_Delay_us
 698              	.LVL64:
 179:Core/Src/ps2.c **** }
 699              		.loc 1 179 1 is_stmt 0 view .LVU147
 700 005e 10BD     		pop	{r4, pc}
 701              	.L54:
 702              		.align	2
 703              	.L53:
 704 0060 00040240 		.word	1073873920
 705              		.cfi_endproc
 706              	.LFE169:
 708              		.section	.text.PS2_TurnOnAnalogMode,"ax",%progbits
 709              		.align	1
ARM GAS  /var/folders/w9/l2kswtfn3fs2kslkvv5vg9sh0000gn/T//ccA6Wpp8.s 			page 17


 710              		.global	PS2_TurnOnAnalogMode
 711              		.syntax unified
 712              		.thumb
 713              		.thumb_func
 715              	PS2_TurnOnAnalogMode:
 716              	.LFB170:
 180:Core/Src/ps2.c **** 
 181:Core/Src/ps2.c **** //ďż˝ďż˝ďż˝ďż˝ÄŁĘ˝ďż˝ďż˝ďż˝ďż˝
 182:Core/Src/ps2.c **** void PS2_TurnOnAnalogMode(void)
 183:Core/Src/ps2.c **** {
 717              		.loc 1 183 1 is_stmt 1 view -0
 718              		.cfi_startproc
 719              		@ args = 0, pretend = 0, frame = 0
 720              		@ frame_needed = 0, uses_anonymous_args = 0
 721 0000 10B5     		push	{r4, lr}
 722              	.LCFI10:
 723              		.cfi_def_cfa_offset 8
 724              		.cfi_offset 4, -8
 725              		.cfi_offset 14, -4
 184:Core/Src/ps2.c **** 	CS_L;
 726              		.loc 1 184 2 view .LVU149
 727 0002 164C     		ldr	r4, .L57
 728 0004 0022     		movs	r2, #0
 729 0006 4FF48051 		mov	r1, #4096
 730 000a 2046     		mov	r0, r4
 731 000c FFF7FEFF 		bl	HAL_GPIO_WritePin
 732              	.LVL65:
 185:Core/Src/ps2.c **** 	PS2_Cmd(0x01);
 733              		.loc 1 185 2 view .LVU150
 734 0010 0120     		movs	r0, #1
 735 0012 FFF7FEFF 		bl	PS2_Cmd
 736              	.LVL66:
 186:Core/Src/ps2.c **** 	PS2_Cmd(0x44);
 737              		.loc 1 186 2 view .LVU151
 738 0016 4420     		movs	r0, #68
 739 0018 FFF7FEFF 		bl	PS2_Cmd
 740              	.LVL67:
 187:Core/Src/ps2.c **** 	PS2_Cmd(0X00);
 741              		.loc 1 187 2 view .LVU152
 742 001c 0020     		movs	r0, #0
 743 001e FFF7FEFF 		bl	PS2_Cmd
 744              	.LVL68:
 188:Core/Src/ps2.c **** 	PS2_Cmd(0x01); //analog=0x01;digital=0x00  ďż˝ďż˝ďż˝ďż˝ďż˝ďż˝ďż˝Ă·ďż˝ďż˝ďż˝ÄŁĘ˝
 745              		.loc 1 188 2 view .LVU153
 746 0022 0120     		movs	r0, #1
 747 0024 FFF7FEFF 		bl	PS2_Cmd
 748              	.LVL69:
 189:Core/Src/ps2.c **** 	PS2_Cmd(0x03); //Ox03ďż˝ďż˝ďż˝ďż˝ďż˝ďż˝ďż˝ĂŁďż˝ďż˝ďż˝ďż˝ďż˝ďż˝ďż˝Í¨ďż˝ďż˝ďż˝ďż˝ďż˝ďż˝ďż˝ďż˝MODEďż˝
 749              		.loc 1 189 2 view .LVU154
 750 0028 0320     		movs	r0, #3
 751 002a FFF7FEFF 		bl	PS2_Cmd
 752              	.LVL70:
 190:Core/Src/ps2.c **** 				   //0xEEďż˝ďż˝ďż˝ďż˝ďż˝ďż˝ďż˝ďż˝ďż˝ďż˝ďż˝ďż˝ďż˝ĂŁďż˝ďż˝ďż˝Í¨ďż˝ďż˝ďż˝ďż˝ďż˝ďż˝ďż˝ďż˝MODEďż˝ďż˝
 191:Core/Src/ps2.c **** 	PS2_Cmd(0X00);
 753              		.loc 1 191 2 view .LVU155
 754 002e 0020     		movs	r0, #0
 755 0030 FFF7FEFF 		bl	PS2_Cmd
ARM GAS  /var/folders/w9/l2kswtfn3fs2kslkvv5vg9sh0000gn/T//ccA6Wpp8.s 			page 18


 756              	.LVL71:
 192:Core/Src/ps2.c **** 	PS2_Cmd(0X00);
 757              		.loc 1 192 2 view .LVU156
 758 0034 0020     		movs	r0, #0
 759 0036 FFF7FEFF 		bl	PS2_Cmd
 760              	.LVL72:
 193:Core/Src/ps2.c **** 	PS2_Cmd(0X00);
 761              		.loc 1 193 2 view .LVU157
 762 003a 0020     		movs	r0, #0
 763 003c FFF7FEFF 		bl	PS2_Cmd
 764              	.LVL73:
 194:Core/Src/ps2.c **** 	PS2_Cmd(0X00);
 765              		.loc 1 194 2 view .LVU158
 766 0040 0020     		movs	r0, #0
 767 0042 FFF7FEFF 		bl	PS2_Cmd
 768              	.LVL74:
 195:Core/Src/ps2.c **** 	CS_H;
 769              		.loc 1 195 2 view .LVU159
 770 0046 0122     		movs	r2, #1
 771 0048 4FF48051 		mov	r1, #4096
 772 004c 2046     		mov	r0, r4
 773 004e FFF7FEFF 		bl	HAL_GPIO_WritePin
 774              	.LVL75:
 196:Core/Src/ps2.c **** 	HAL_Delay_us(16);
 775              		.loc 1 196 2 view .LVU160
 776 0052 1020     		movs	r0, #16
 777 0054 FFF7FEFF 		bl	HAL_Delay_us
 778              	.LVL76:
 197:Core/Src/ps2.c **** }
 779              		.loc 1 197 1 is_stmt 0 view .LVU161
 780 0058 10BD     		pop	{r4, pc}
 781              	.L58:
 782 005a 00BF     		.align	2
 783              	.L57:
 784 005c 00040240 		.word	1073873920
 785              		.cfi_endproc
 786              	.LFE170:
 788              		.section	.text.PS2_VibrationMode,"ax",%progbits
 789              		.align	1
 790              		.global	PS2_VibrationMode
 791              		.syntax unified
 792              		.thumb
 793              		.thumb_func
 795              	PS2_VibrationMode:
 796              	.LFB171:
 198:Core/Src/ps2.c **** 
 199:Core/Src/ps2.c **** //ďż˝ďż˝ďż˝ďż˝ďż˝ďż˝
 200:Core/Src/ps2.c **** void PS2_VibrationMode(void)
 201:Core/Src/ps2.c **** {
 797              		.loc 1 201 1 is_stmt 1 view -0
 798              		.cfi_startproc
 799              		@ args = 0, pretend = 0, frame = 0
 800              		@ frame_needed = 0, uses_anonymous_args = 0
 801 0000 10B5     		push	{r4, lr}
 802              	.LCFI11:
 803              		.cfi_def_cfa_offset 8
 804              		.cfi_offset 4, -8
ARM GAS  /var/folders/w9/l2kswtfn3fs2kslkvv5vg9sh0000gn/T//ccA6Wpp8.s 			page 19


 805              		.cfi_offset 14, -4
 202:Core/Src/ps2.c **** 	CS_L;
 806              		.loc 1 202 2 view .LVU163
 807 0002 114C     		ldr	r4, .L61
 808 0004 0022     		movs	r2, #0
 809 0006 4FF48051 		mov	r1, #4096
 810 000a 2046     		mov	r0, r4
 811 000c FFF7FEFF 		bl	HAL_GPIO_WritePin
 812              	.LVL77:
 203:Core/Src/ps2.c **** 	HAL_Delay_us(16);
 813              		.loc 1 203 2 view .LVU164
 814 0010 1020     		movs	r0, #16
 815 0012 FFF7FEFF 		bl	HAL_Delay_us
 816              	.LVL78:
 204:Core/Src/ps2.c **** 	PS2_Cmd(0x01);
 817              		.loc 1 204 2 view .LVU165
 818 0016 0120     		movs	r0, #1
 819 0018 FFF7FEFF 		bl	PS2_Cmd
 820              	.LVL79:
 205:Core/Src/ps2.c **** 	PS2_Cmd(0x4D);
 821              		.loc 1 205 2 view .LVU166
 822 001c 4D20     		movs	r0, #77
 823 001e FFF7FEFF 		bl	PS2_Cmd
 824              	.LVL80:
 206:Core/Src/ps2.c **** 	PS2_Cmd(0X00);
 825              		.loc 1 206 2 view .LVU167
 826 0022 0020     		movs	r0, #0
 827 0024 FFF7FEFF 		bl	PS2_Cmd
 828              	.LVL81:
 207:Core/Src/ps2.c **** 	PS2_Cmd(0x00);
 829              		.loc 1 207 2 view .LVU168
 830 0028 0020     		movs	r0, #0
 831 002a FFF7FEFF 		bl	PS2_Cmd
 832              	.LVL82:
 208:Core/Src/ps2.c **** 	PS2_Cmd(0X01);
 833              		.loc 1 208 2 view .LVU169
 834 002e 0120     		movs	r0, #1
 835 0030 FFF7FEFF 		bl	PS2_Cmd
 836              	.LVL83:
 209:Core/Src/ps2.c **** 	CS_H;
 837              		.loc 1 209 2 view .LVU170
 838 0034 0122     		movs	r2, #1
 839 0036 4FF48051 		mov	r1, #4096
 840 003a 2046     		mov	r0, r4
 841 003c FFF7FEFF 		bl	HAL_GPIO_WritePin
 842              	.LVL84:
 210:Core/Src/ps2.c **** 	HAL_Delay_us(16);
 843              		.loc 1 210 2 view .LVU171
 844 0040 1020     		movs	r0, #16
 845 0042 FFF7FEFF 		bl	HAL_Delay_us
 846              	.LVL85:
 211:Core/Src/ps2.c **** }
 847              		.loc 1 211 1 is_stmt 0 view .LVU172
 848 0046 10BD     		pop	{r4, pc}
 849              	.L62:
 850              		.align	2
 851              	.L61:
ARM GAS  /var/folders/w9/l2kswtfn3fs2kslkvv5vg9sh0000gn/T//ccA6Wpp8.s 			page 20


 852 0048 00040240 		.word	1073873920
 853              		.cfi_endproc
 854              	.LFE171:
 856              		.section	.text.PS2_ExitConfing,"ax",%progbits
 857              		.align	1
 858              		.global	PS2_ExitConfing
 859              		.syntax unified
 860              		.thumb
 861              		.thumb_func
 863              	PS2_ExitConfing:
 864              	.LFB172:
 212:Core/Src/ps2.c **** 
 213:Core/Src/ps2.c **** //ďż˝ďż˝É˛ďż˝ďż˝ďż˝ďż˝ďż˝ďż˝ďż˝ďż˝ďż˝
 214:Core/Src/ps2.c **** void PS2_ExitConfing(void)
 215:Core/Src/ps2.c **** {
 865              		.loc 1 215 1 is_stmt 1 view -0
 866              		.cfi_startproc
 867              		@ args = 0, pretend = 0, frame = 0
 868              		@ frame_needed = 0, uses_anonymous_args = 0
 869 0000 10B5     		push	{r4, lr}
 870              	.LCFI12:
 871              		.cfi_def_cfa_offset 8
 872              		.cfi_offset 4, -8
 873              		.cfi_offset 14, -4
 216:Core/Src/ps2.c **** 	CS_L;
 874              		.loc 1 216 2 view .LVU174
 875 0002 174C     		ldr	r4, .L65
 876 0004 0022     		movs	r2, #0
 877 0006 4FF48051 		mov	r1, #4096
 878 000a 2046     		mov	r0, r4
 879 000c FFF7FEFF 		bl	HAL_GPIO_WritePin
 880              	.LVL86:
 217:Core/Src/ps2.c **** 	HAL_Delay_us(16);
 881              		.loc 1 217 2 view .LVU175
 882 0010 1020     		movs	r0, #16
 883 0012 FFF7FEFF 		bl	HAL_Delay_us
 884              	.LVL87:
 218:Core/Src/ps2.c **** 	PS2_Cmd(0x01);
 885              		.loc 1 218 2 view .LVU176
 886 0016 0120     		movs	r0, #1
 887 0018 FFF7FEFF 		bl	PS2_Cmd
 888              	.LVL88:
 219:Core/Src/ps2.c **** 	PS2_Cmd(0x43);
 889              		.loc 1 219 2 view .LVU177
 890 001c 4320     		movs	r0, #67
 891 001e FFF7FEFF 		bl	PS2_Cmd
 892              	.LVL89:
 220:Core/Src/ps2.c **** 	PS2_Cmd(0X00);
 893              		.loc 1 220 2 view .LVU178
 894 0022 0020     		movs	r0, #0
 895 0024 FFF7FEFF 		bl	PS2_Cmd
 896              	.LVL90:
 221:Core/Src/ps2.c **** 	PS2_Cmd(0x00);
 897              		.loc 1 221 2 view .LVU179
 898 0028 0020     		movs	r0, #0
 899 002a FFF7FEFF 		bl	PS2_Cmd
 900              	.LVL91:
ARM GAS  /var/folders/w9/l2kswtfn3fs2kslkvv5vg9sh0000gn/T//ccA6Wpp8.s 			page 21


 222:Core/Src/ps2.c **** 	PS2_Cmd(0x5A);
 901              		.loc 1 222 2 view .LVU180
 902 002e 5A20     		movs	r0, #90
 903 0030 FFF7FEFF 		bl	PS2_Cmd
 904              	.LVL92:
 223:Core/Src/ps2.c **** 	PS2_Cmd(0x5A);
 905              		.loc 1 223 2 view .LVU181
 906 0034 5A20     		movs	r0, #90
 907 0036 FFF7FEFF 		bl	PS2_Cmd
 908              	.LVL93:
 224:Core/Src/ps2.c **** 	PS2_Cmd(0x5A);
 909              		.loc 1 224 2 view .LVU182
 910 003a 5A20     		movs	r0, #90
 911 003c FFF7FEFF 		bl	PS2_Cmd
 912              	.LVL94:
 225:Core/Src/ps2.c **** 	PS2_Cmd(0x5A);
 913              		.loc 1 225 2 view .LVU183
 914 0040 5A20     		movs	r0, #90
 915 0042 FFF7FEFF 		bl	PS2_Cmd
 916              	.LVL95:
 226:Core/Src/ps2.c **** 	PS2_Cmd(0x5A);
 917              		.loc 1 226 2 view .LVU184
 918 0046 5A20     		movs	r0, #90
 919 0048 FFF7FEFF 		bl	PS2_Cmd
 920              	.LVL96:
 227:Core/Src/ps2.c **** 	CS_H;
 921              		.loc 1 227 2 view .LVU185
 922 004c 0122     		movs	r2, #1
 923 004e 4FF48051 		mov	r1, #4096
 924 0052 2046     		mov	r0, r4
 925 0054 FFF7FEFF 		bl	HAL_GPIO_WritePin
 926              	.LVL97:
 228:Core/Src/ps2.c **** 	HAL_Delay_us(16);
 927              		.loc 1 228 2 view .LVU186
 928 0058 1020     		movs	r0, #16
 929 005a FFF7FEFF 		bl	HAL_Delay_us
 930              	.LVL98:
 229:Core/Src/ps2.c **** }
 931              		.loc 1 229 1 is_stmt 0 view .LVU187
 932 005e 10BD     		pop	{r4, pc}
 933              	.L66:
 934              		.align	2
 935              	.L65:
 936 0060 00040240 		.word	1073873920
 937              		.cfi_endproc
 938              	.LFE172:
 940              		.section	.text.PS2_SetInit,"ax",%progbits
 941              		.align	1
 942              		.global	PS2_SetInit
 943              		.syntax unified
 944              		.thumb
 945              		.thumb_func
 947              	PS2_SetInit:
 948              	.LFB173:
 230:Core/Src/ps2.c **** 
 231:Core/Src/ps2.c **** //ďż˝Ö±ďż˝ďż˝ďż˝ďż˝Ăłďż˝ĘĽďż˝ďż˝
 232:Core/Src/ps2.c **** void PS2_SetInit(void)
ARM GAS  /var/folders/w9/l2kswtfn3fs2kslkvv5vg9sh0000gn/T//ccA6Wpp8.s 			page 22


 233:Core/Src/ps2.c **** {
 949              		.loc 1 233 1 is_stmt 1 view -0
 950              		.cfi_startproc
 951              		@ args = 0, pretend = 0, frame = 0
 952              		@ frame_needed = 0, uses_anonymous_args = 0
 953 0000 08B5     		push	{r3, lr}
 954              	.LCFI13:
 955              		.cfi_def_cfa_offset 8
 956              		.cfi_offset 3, -8
 957              		.cfi_offset 14, -4
 234:Core/Src/ps2.c **** 	motor_ready = false;
 958              		.loc 1 234 2 view .LVU189
 959              		.loc 1 234 14 is_stmt 0 view .LVU190
 960 0002 094B     		ldr	r3, .L69
 961 0004 0022     		movs	r2, #0
 962 0006 1A60     		str	r2, [r3]
 235:Core/Src/ps2.c **** 	PS2_ShortPoll();
 963              		.loc 1 235 2 is_stmt 1 view .LVU191
 964 0008 FFF7FEFF 		bl	PS2_ShortPoll
 965              	.LVL99:
 236:Core/Src/ps2.c **** 	PS2_ShortPoll();
 966              		.loc 1 236 2 view .LVU192
 967 000c FFF7FEFF 		bl	PS2_ShortPoll
 968              	.LVL100:
 237:Core/Src/ps2.c **** 	PS2_ShortPoll();
 969              		.loc 1 237 2 view .LVU193
 970 0010 FFF7FEFF 		bl	PS2_ShortPoll
 971              	.LVL101:
 238:Core/Src/ps2.c **** 	PS2_EnterConfing();		//ďż˝ďż˝ďż˝ďż˝ďż˝ďż˝ďż˝ďż˝ÄŁĘ˝
 972              		.loc 1 238 2 view .LVU194
 973 0014 FFF7FEFF 		bl	PS2_EnterConfing
 974              	.LVL102:
 239:Core/Src/ps2.c **** 	PS2_TurnOnAnalogMode(); //ďż˝ďż˝ďż˝ďż˝ďż˝ĚµĆˇďż˝ďż˝ďż˝ďż˝ďż˝ÄŁĘ˝ďż˝ďż˝ďż˝ďż˝Ńˇďż˝ďż˝ďż˝Ç·ń±Ł´ďż˝
 975              		.loc 1 239 2 view .LVU195
 976 0018 FFF7FEFF 		bl	PS2_TurnOnAnalogMode
 977              	.LVL103:
 240:Core/Src/ps2.c **** 	PS2_VibrationMode();	//ďż˝ďż˝ďż˝ďż˝ďż˝ďż˝ÄŁĘ˝
 978              		.loc 1 240 2 view .LVU196
 979 001c FFF7FEFF 		bl	PS2_VibrationMode
 980              	.LVL104:
 241:Core/Src/ps2.c **** 	PS2_ExitConfing(); //ďż˝ďż˝É˛ďż˝ďż˝ďż˝ďż˝ďż˝ďż˝ďż˝ďż˝ďż˝
 981              		.loc 1 241 2 view .LVU197
 982 0020 FFF7FEFF 		bl	PS2_ExitConfing
 983              	.LVL105:
 242:Core/Src/ps2.c **** }
 984              		.loc 1 242 1 is_stmt 0 view .LVU198
 985 0024 08BD     		pop	{r3, pc}
 986              	.L70:
 987 0026 00BF     		.align	2
 988              	.L69:
 989 0028 00000000 		.word	motor_ready
 990              		.cfi_endproc
 991              	.LFE173:
 993              		.section	.text.PS2_Vibration,"ax",%progbits
 994              		.align	1
 995              		.global	PS2_Vibration
 996              		.syntax unified
ARM GAS  /var/folders/w9/l2kswtfn3fs2kslkvv5vg9sh0000gn/T//ccA6Wpp8.s 			page 23


 997              		.thumb
 998              		.thumb_func
 1000              	PS2_Vibration:
 1001              	.LVL106:
 1002              	.LFB174:
 243:Core/Src/ps2.c **** 
 244:Core/Src/ps2.c **** /******************************************************
 245:Core/Src/ps2.c **** Function:    void PS2_Vibration(u8 motor1, u8 motor2)
 246:Core/Src/ps2.c **** Description: ďż˝Ö±ďż˝ďż˝đ¶Żşďż˝ďż˝ďż˝ďż˝ďż˝
 247:Core/Src/ps2.c **** Calls:		 void PS2_Cmd(u8 CMD);
 248:Core/Src/ps2.c **** Input: motor1:ďż˝Ň˛ďż˝Đˇďż˝đ¶Żµďż˝ďż˝ 0x00ďż˝ŘŁďż˝ďż˝ďż˝ďż˝ďż˝ďż˝ďż˝
 249:Core/Src/ps2.c **** 	   motor2:ďż˝ďż˝ďż˝ďż˝ďż˝đ¶Żµďż˝ďż˝ 0x40~0xFF ďż˝ďż˝ďż˝ďż˝ďż˝ďż˝ďż˝ÖµÔ˝ďż˝ďż˝ ďż˝ďż˝Ô˝ďż˝ďż˝
 250:Core/Src/ps2.c **** ******************************************************/
 251:Core/Src/ps2.c **** void PS2_Vibration(uint8_t motor1, uint8_t motor2)
 252:Core/Src/ps2.c **** {
 1003              		.loc 1 252 1 is_stmt 1 view -0
 1004              		.cfi_startproc
 1005              		@ args = 0, pretend = 0, frame = 0
 1006              		@ frame_needed = 0, uses_anonymous_args = 0
 1007              		.loc 1 252 1 is_stmt 0 view .LVU200
 1008 0000 70B5     		push	{r4, r5, r6, lr}
 1009              	.LCFI14:
 1010              		.cfi_def_cfa_offset 16
 1011              		.cfi_offset 4, -16
 1012              		.cfi_offset 5, -12
 1013              		.cfi_offset 6, -8
 1014              		.cfi_offset 14, -4
 1015 0002 0546     		mov	r5, r0
 1016 0004 0C46     		mov	r4, r1
 253:Core/Src/ps2.c **** 	CS_L;
 1017              		.loc 1 253 2 is_stmt 1 view .LVU201
 1018 0006 174E     		ldr	r6, .L73
 1019 0008 0022     		movs	r2, #0
 1020 000a 4FF48051 		mov	r1, #4096
 1021              	.LVL107:
 1022              		.loc 1 253 2 is_stmt 0 view .LVU202
 1023 000e 3046     		mov	r0, r6
 1024              	.LVL108:
 1025              		.loc 1 253 2 view .LVU203
 1026 0010 FFF7FEFF 		bl	HAL_GPIO_WritePin
 1027              	.LVL109:
 254:Core/Src/ps2.c **** 	HAL_Delay_us(16);
 1028              		.loc 1 254 2 is_stmt 1 view .LVU204
 1029 0014 1020     		movs	r0, #16
 1030 0016 FFF7FEFF 		bl	HAL_Delay_us
 1031              	.LVL110:
 255:Core/Src/ps2.c **** 	PS2_Cmd(0x01); //ďż˝ďż˝ĘĽďż˝ďż˝ďż˝ďż˝
 1032              		.loc 1 255 2 view .LVU205
 1033 001a 0120     		movs	r0, #1
 1034 001c FFF7FEFF 		bl	PS2_Cmd
 1035              	.LVL111:
 256:Core/Src/ps2.c **** 	PS2_Cmd(0x42); //ďż˝ďż˝ďż˝ďż˝ďż˝ďż˝ďż˝ďż˝
 1036              		.loc 1 256 2 view .LVU206
 1037 0020 4220     		movs	r0, #66
 1038 0022 FFF7FEFF 		bl	PS2_Cmd
 1039              	.LVL112:
 257:Core/Src/ps2.c **** 	PS2_Cmd(0X00);
ARM GAS  /var/folders/w9/l2kswtfn3fs2kslkvv5vg9sh0000gn/T//ccA6Wpp8.s 			page 24


 1040              		.loc 1 257 2 view .LVU207
 1041 0026 0020     		movs	r0, #0
 1042 0028 FFF7FEFF 		bl	PS2_Cmd
 1043              	.LVL113:
 258:Core/Src/ps2.c **** 	PS2_Cmd(motor1);
 1044              		.loc 1 258 2 view .LVU208
 1045 002c 2846     		mov	r0, r5
 1046 002e FFF7FEFF 		bl	PS2_Cmd
 1047              	.LVL114:
 259:Core/Src/ps2.c **** 	PS2_Cmd(motor2);
 1048              		.loc 1 259 2 view .LVU209
 1049 0032 2046     		mov	r0, r4
 1050 0034 FFF7FEFF 		bl	PS2_Cmd
 1051              	.LVL115:
 260:Core/Src/ps2.c **** 	PS2_Cmd(0X00);
 1052              		.loc 1 260 2 view .LVU210
 1053 0038 0020     		movs	r0, #0
 1054 003a FFF7FEFF 		bl	PS2_Cmd
 1055              	.LVL116:
 261:Core/Src/ps2.c **** 	PS2_Cmd(0X00);
 1056              		.loc 1 261 2 view .LVU211
 1057 003e 0020     		movs	r0, #0
 1058 0040 FFF7FEFF 		bl	PS2_Cmd
 1059              	.LVL117:
 262:Core/Src/ps2.c **** 	PS2_Cmd(0X00);
 1060              		.loc 1 262 2 view .LVU212
 1061 0044 0020     		movs	r0, #0
 1062 0046 FFF7FEFF 		bl	PS2_Cmd
 1063              	.LVL118:
 263:Core/Src/ps2.c **** 	PS2_Cmd(0X00);
 1064              		.loc 1 263 2 view .LVU213
 1065 004a 0020     		movs	r0, #0
 1066 004c FFF7FEFF 		bl	PS2_Cmd
 1067              	.LVL119:
 264:Core/Src/ps2.c **** 	CS_H;
 1068              		.loc 1 264 2 view .LVU214
 1069 0050 0122     		movs	r2, #1
 1070 0052 4FF48051 		mov	r1, #4096
 1071 0056 3046     		mov	r0, r6
 1072 0058 FFF7FEFF 		bl	HAL_GPIO_WritePin
 1073              	.LVL120:
 265:Core/Src/ps2.c **** 	HAL_Delay_us(16);
 1074              		.loc 1 265 2 view .LVU215
 1075 005c 1020     		movs	r0, #16
 1076 005e FFF7FEFF 		bl	HAL_Delay_us
 1077              	.LVL121:
 266:Core/Src/ps2.c **** }
 1078              		.loc 1 266 1 is_stmt 0 view .LVU216
 1079 0062 70BD     		pop	{r4, r5, r6, pc}
 1080              	.LVL122:
 1081              	.L74:
 1082              		.loc 1 266 1 view .LVU217
 1083              		.align	2
 1084              	.L73:
 1085 0064 00040240 		.word	1073873920
 1086              		.cfi_endproc
 1087              	.LFE174:
ARM GAS  /var/folders/w9/l2kswtfn3fs2kslkvv5vg9sh0000gn/T//ccA6Wpp8.s 			page 25


 1089              		.section	.text.PS2_Receive,"ax",%progbits
 1090              		.align	1
 1091              		.global	PS2_Receive
 1092              		.syntax unified
 1093              		.thumb
 1094              		.thumb_func
 1096              	PS2_Receive:
 1097              	.LFB175:
 267:Core/Src/ps2.c **** 
 268:Core/Src/ps2.c **** //ďż˝ďż˝Čˇďż˝Ö±ďż˝ďż˝ďż˝Ď˘
 269:Core/Src/ps2.c **** void PS2_Receive(void)
 270:Core/Src/ps2.c **** {
 1098              		.loc 1 270 1 is_stmt 1 view -0
 1099              		.cfi_startproc
 1100              		@ args = 0, pretend = 0, frame = 0
 1101              		@ frame_needed = 0, uses_anonymous_args = 0
 1102 0000 08B5     		push	{r3, lr}
 1103              	.LCFI15:
 1104              		.cfi_def_cfa_offset 8
 1105              		.cfi_offset 3, -8
 1106              		.cfi_offset 14, -4
 271:Core/Src/ps2.c **** 	PS2_LX = PS2_AnologData(PSS_LX);  //left-0       mid-127      right-255 
 1107              		.loc 1 271 2 view .LVU219
 1108              		.loc 1 271 11 is_stmt 0 view .LVU220
 1109 0002 0720     		movs	r0, #7
 1110 0004 FFF7FEFF 		bl	PS2_AnologData
 1111              	.LVL123:
 1112              		.loc 1 271 9 discriminator 1 view .LVU221
 1113 0008 0A4B     		ldr	r3, .L77
 1114 000a 1860     		str	r0, [r3]
 272:Core/Src/ps2.c **** 	PS2_LY = PS2_AnologData(PSS_LY);  //forward-0    mid-128      backward-255
 1115              		.loc 1 272 2 is_stmt 1 view .LVU222
 1116              		.loc 1 272 11 is_stmt 0 view .LVU223
 1117 000c 0820     		movs	r0, #8
 1118 000e FFF7FEFF 		bl	PS2_AnologData
 1119              	.LVL124:
 1120              		.loc 1 272 9 discriminator 1 view .LVU224
 1121 0012 094B     		ldr	r3, .L77+4
 1122 0014 1860     		str	r0, [r3]
 273:Core/Src/ps2.c **** 	PS2_RX = PS2_AnologData(PSS_RX);  //left-0       mid-127      right-255 
 1123              		.loc 1 273 2 is_stmt 1 view .LVU225
 1124              		.loc 1 273 11 is_stmt 0 view .LVU226
 1125 0016 0520     		movs	r0, #5
 1126 0018 FFF7FEFF 		bl	PS2_AnologData
 1127              	.LVL125:
 1128              		.loc 1 273 9 discriminator 1 view .LVU227
 1129 001c 074B     		ldr	r3, .L77+8
 1130 001e 1860     		str	r0, [r3]
 274:Core/Src/ps2.c **** 	PS2_RY = PS2_AnologData(PSS_RY);  //forward-0    mid-128      backward-255
 1131              		.loc 1 274 2 is_stmt 1 view .LVU228
 1132              		.loc 1 274 11 is_stmt 0 view .LVU229
 1133 0020 0620     		movs	r0, #6
 1134 0022 FFF7FEFF 		bl	PS2_AnologData
 1135              	.LVL126:
 1136              		.loc 1 274 9 discriminator 1 view .LVU230
 1137 0026 064B     		ldr	r3, .L77+12
 1138 0028 1860     		str	r0, [r3]
ARM GAS  /var/folders/w9/l2kswtfn3fs2kslkvv5vg9sh0000gn/T//ccA6Wpp8.s 			page 26


 275:Core/Src/ps2.c **** 	PS2_KEY = PS2_DataKey();  //up-5 right-6 donw-7 left-8 donw-7 //Y-13 B-14 A-15 X-16 //L1-11 L2-9  
 1139              		.loc 1 275 2 is_stmt 1 view .LVU231
 1140              		.loc 1 275 12 is_stmt 0 view .LVU232
 1141 002a FFF7FEFF 		bl	PS2_DataKey
 1142              	.LVL127:
 1143              		.loc 1 275 10 discriminator 1 view .LVU233
 1144 002e 054B     		ldr	r3, .L77+16
 1145 0030 1860     		str	r0, [r3]
 276:Core/Src/ps2.c **** 	
 277:Core/Src/ps2.c **** }
 1146              		.loc 1 277 1 view .LVU234
 1147 0032 08BD     		pop	{r3, pc}
 1148              	.L78:
 1149              		.align	2
 1150              	.L77:
 1151 0034 00000000 		.word	PS2_LX
 1152 0038 00000000 		.word	PS2_LY
 1153 003c 00000000 		.word	PS2_RX
 1154 0040 00000000 		.word	PS2_RY
 1155 0044 00000000 		.word	PS2_KEY
 1156              		.cfi_endproc
 1157              	.LFE175:
 1159              		.section	.rodata.PS2_print.str1.4,"aMS",%progbits,1
 1160              		.align	2
 1161              	.LC0:
 1162 0000 0A205053 		.ascii	"\012 PS2_LX:%d\012 PS2_LY:%d\012 PS2_RX:%d\012 PS2_"
 1162      325F4C58 
 1162      3A25640A 
 1162      20505332 
 1162      5F4C593A 
 1163 0027 52593A25 		.ascii	"RY:%d\012 PS2_KEY:%d\012 Vcx:%d\012 motor_ready:%d\012"
 1163      640A2050 
 1163      53325F4B 
 1163      45593A25 
 1163      640A2056 
 1164 0051 00       		.ascii	"\000"
 1165              		.section	.text.PS2_print,"ax",%progbits
 1166              		.align	1
 1167              		.global	PS2_print
 1168              		.syntax unified
 1169              		.thumb
 1170              		.thumb_func
 1172              	PS2_print:
 1173              	.LFB176:
 278:Core/Src/ps2.c **** void PS2_print(void)
 279:Core/Src/ps2.c **** {
 1174              		.loc 1 279 1 is_stmt 1 view -0
 1175              		.cfi_startproc
 1176              		@ args = 0, pretend = 0, frame = 0
 1177              		@ frame_needed = 0, uses_anonymous_args = 0
 1178 0000 70B5     		push	{r4, r5, r6, lr}
 1179              	.LCFI16:
 1180              		.cfi_def_cfa_offset 16
 1181              		.cfi_offset 4, -16
 1182              		.cfi_offset 5, -12
 1183              		.cfi_offset 6, -8
 1184              		.cfi_offset 14, -4
ARM GAS  /var/folders/w9/l2kswtfn3fs2kslkvv5vg9sh0000gn/T//ccA6Wpp8.s 			page 27


 1185 0002 86B0     		sub	sp, sp, #24
 1186              	.LCFI17:
 1187              		.cfi_def_cfa_offset 40
 280:Core/Src/ps2.c **** 	usart_printf("\n PS2_LX:%d\n PS2_LY:%d\n PS2_RX:%d\n PS2_RY:%d\n PS2_KEY:%d\n Vcx:%d\n motor_ready
 1188              		.loc 1 280 2 view .LVU236
 1189 0004 0E4B     		ldr	r3, .L81
 1190 0006 1E68     		ldr	r6, [r3]
 1191 0008 0E4B     		ldr	r3, .L81+4
 1192 000a 1D68     		ldr	r5, [r3]
 1193 000c 0E4B     		ldr	r3, .L81+8
 1194 000e 1C68     		ldr	r4, [r3]
 1195 0010 0E4B     		ldr	r3, .L81+12
 1196 0012 1B68     		ldr	r3, [r3]
 1197 0014 0493     		str	r3, [sp, #16]
 1198 0016 0E4B     		ldr	r3, .L81+16
 1199 0018 1868     		ldr	r0, [r3]	@ float
 1200 001a FFF7FEFF 		bl	__aeabi_f2d
 1201              	.LVL128:
 1202 001e CDE90201 		strd	r0, [sp, #8]
 1203 0022 0C4B     		ldr	r3, .L81+20
 1204 0024 1B68     		ldr	r3, [r3]
 1205 0026 0193     		str	r3, [sp, #4]
 1206 0028 0B4B     		ldr	r3, .L81+24
 1207 002a 1B68     		ldr	r3, [r3]
 1208 002c 0093     		str	r3, [sp]
 1209 002e 3346     		mov	r3, r6
 1210 0030 2A46     		mov	r2, r5
 1211 0032 2146     		mov	r1, r4
 1212 0034 0948     		ldr	r0, .L81+28
 1213 0036 FFF7FEFF 		bl	usart_printf
 1214              	.LVL129:
 281:Core/Src/ps2.c **** 
 282:Core/Src/ps2.c **** }
 1215              		.loc 1 282 1 is_stmt 0 view .LVU237
 1216 003a 06B0     		add	sp, sp, #24
 1217              	.LCFI18:
 1218              		.cfi_def_cfa_offset 16
 1219              		@ sp needed
 1220 003c 70BD     		pop	{r4, r5, r6, pc}
 1221              	.L82:
 1222 003e 00BF     		.align	2
 1223              	.L81:
 1224 0040 00000000 		.word	PS2_RX
 1225 0044 00000000 		.word	PS2_LY
 1226 0048 00000000 		.word	PS2_LX
 1227 004c 00000000 		.word	motor_ready
 1228 0050 00000000 		.word	Vcx
 1229 0054 00000000 		.word	PS2_KEY
 1230 0058 00000000 		.word	PS2_RY
 1231 005c 00000000 		.word	.LC0
 1232              		.cfi_endproc
 1233              	.LFE176:
 1235              		.section	.rodata.PS2_Vofa_print.str1.4,"aMS",%progbits,1
 1236              		.align	2
 1237              	.LC1:
 1238 0000 25642C25 		.ascii	"%d,%d,%d,%d,%d,%f,%f,%d,%d,%d\012\000"
 1238      642C2564 
ARM GAS  /var/folders/w9/l2kswtfn3fs2kslkvv5vg9sh0000gn/T//ccA6Wpp8.s 			page 28


 1238      2C25642C 
 1238      25642C25 
 1238      662C2566 
 1239              		.section	.text.PS2_Vofa_print,"ax",%progbits
 1240              		.align	1
 1241              		.global	PS2_Vofa_print
 1242              		.syntax unified
 1243              		.thumb
 1244              		.thumb_func
 1246              	PS2_Vofa_print:
 1247              	.LFB177:
 283:Core/Src/ps2.c **** 
 284:Core/Src/ps2.c **** void PS2_Vofa_print(void)
 285:Core/Src/ps2.c **** {
 1248              		.loc 1 285 1 is_stmt 1 view -0
 1249              		.cfi_startproc
 1250              		@ args = 0, pretend = 0, frame = 0
 1251              		@ frame_needed = 0, uses_anonymous_args = 0
 1252 0000 70B5     		push	{r4, r5, r6, lr}
 1253              	.LCFI19:
 1254              		.cfi_def_cfa_offset 16
 1255              		.cfi_offset 4, -16
 1256              		.cfi_offset 5, -12
 1257              		.cfi_offset 6, -8
 1258              		.cfi_offset 14, -4
 1259 0002 8CB0     		sub	sp, sp, #48
 1260              	.LCFI20:
 1261              		.cfi_def_cfa_offset 64
 286:Core/Src/ps2.c **** 	usart_printf("%d,%d,%d,%d,%d,%f,%f,%d,%d,%d\n",PS2_LX,PS2_LY,PS2_RX,PS2_RY,PS2_KEY,Vcx,Wc,motor_re
 1262              		.loc 1 286 2 view .LVU239
 1263 0004 174B     		ldr	r3, .L85
 1264 0006 1E68     		ldr	r6, [r3]
 1265 0008 174B     		ldr	r3, .L85+4
 1266 000a 1D68     		ldr	r5, [r3]
 1267 000c 174B     		ldr	r3, .L85+8
 1268 000e 1C68     		ldr	r4, [r3]
 1269 0010 174B     		ldr	r3, .L85+12
 1270 0012 1868     		ldr	r0, [r3]	@ float
 1271 0014 FFF7FEFF 		bl	__aeabi_f2d
 1272              	.LVL130:
 1273 0018 CDE90A01 		strd	r0, [sp, #40]
 1274 001c 154B     		ldr	r3, .L85+16
 1275 001e 1868     		ldr	r0, [r3]	@ float
 1276 0020 FFF7FEFF 		bl	__aeabi_f2d
 1277              	.LVL131:
 1278 0024 CDE90801 		strd	r0, [sp, #32]
 1279 0028 134B     		ldr	r3, .L85+20
 1280 002a 1B68     		ldr	r3, [r3]
 1281 002c 0693     		str	r3, [sp, #24]
 1282 002e 134B     		ldr	r3, .L85+24
 1283 0030 1868     		ldr	r0, [r3]	@ float
 1284 0032 FFF7FEFF 		bl	__aeabi_f2d
 1285              	.LVL132:
 1286 0036 CDE90401 		strd	r0, [sp, #16]
 1287 003a 114B     		ldr	r3, .L85+28
 1288 003c 1868     		ldr	r0, [r3]	@ float
 1289 003e FFF7FEFF 		bl	__aeabi_f2d
ARM GAS  /var/folders/w9/l2kswtfn3fs2kslkvv5vg9sh0000gn/T//ccA6Wpp8.s 			page 29


 1290              	.LVL133:
 1291 0042 CDE90201 		strd	r0, [sp, #8]
 1292 0046 0F4B     		ldr	r3, .L85+32
 1293 0048 1B68     		ldr	r3, [r3]
 1294 004a 0193     		str	r3, [sp, #4]
 1295 004c 0E4B     		ldr	r3, .L85+36
 1296 004e 1B68     		ldr	r3, [r3]
 1297 0050 0093     		str	r3, [sp]
 1298 0052 3346     		mov	r3, r6
 1299 0054 2A46     		mov	r2, r5
 1300 0056 2146     		mov	r1, r4
 1301 0058 0C48     		ldr	r0, .L85+40
 1302 005a FFF7FEFF 		bl	usart_printf
 1303              	.LVL134:
 287:Core/Src/ps2.c **** 
 288:Core/Src/ps2.c **** }...
 1304              		.loc 1 288 1 is_stmt 0 view .LVU240
 1305 005e 0CB0     		add	sp, sp, #48
 1306              	.LCFI21:
 1307              		.cfi_def_cfa_offset 16
 1308              		@ sp needed
 1309 0060 70BD     		pop	{r4, r5, r6, pc}
 1310              	.L86:
 1311 0062 00BF     		.align	2
 1312              	.L85:
 1313 0064 00000000 		.word	PS2_RX
 1314 0068 00000000 		.word	PS2_LY
 1315 006c 00000000 		.word	PS2_LX
 1316 0070 00000000 		.word	set_spdR
 1317 0074 00000000 		.word	set_spdL
 1318 0078 00000000 		.word	motor_ready
 1319 007c 00000000 		.word	Wc
 1320 0080 00000000 		.word	Vcx
 1321 0084 00000000 		.word	PS2_KEY
 1322 0088 00000000 		.word	PS2_RY
 1323 008c 00000000 		.word	.LC1
 1324              		.cfi_endproc
 1325              	.LFE177:
 1327              		.global	MASK
 1328              		.section	.data.MASK,"aw"
 1329              		.align	2
 1332              	MASK:
 1333 0000 0100     		.short	1
 1334 0002 0200     		.short	2
 1335 0004 0300     		.short	3
 1336 0006 0400     		.short	4
 1337 0008 0500     		.short	5
 1338 000a 0600     		.short	6
 1339 000c 0700     		.short	7
 1340 000e 0800     		.short	8
 1341 0010 0900     		.short	9
 1342 0012 0A00     		.short	10
 1343 0014 0B00     		.short	11
 1344 0016 0C00     		.short	12
 1345 0018 0D00     		.short	13
 1346 001a 0E00     		.short	14
 1347 001c 0F00     		.short	15
ARM GAS  /var/folders/w9/l2kswtfn3fs2kslkvv5vg9sh0000gn/T//ccA6Wpp8.s 			page 30


 1348 001e 1000     		.short	16
 1349              		.global	Data
 1350              		.section	.bss.Data,"aw",%nobits
 1351              		.align	2
 1354              	Data:
 1355 0000 00000000 		.space	9
 1355      00000000 
 1355      00
 1356              		.global	Comd
 1357              		.section	.data.Comd,"aw"
 1358              		.align	2
 1361              	Comd:
 1362 0000 0142     		.ascii	"\001B"
 1363              		.global	Handkey
 1364              		.section	.bss.Handkey,"aw",%nobits
 1365              		.align	1
 1368              	Handkey:
 1369 0000 0000     		.space	2
 1370              		.global	PS2_KEY
 1371              		.section	.bss.PS2_KEY,"aw",%nobits
 1372              		.align	2
 1375              	PS2_KEY:
 1376 0000 00000000 		.space	4
 1377              		.global	PS2_RY
 1378              		.section	.bss.PS2_RY,"aw",%nobits
 1379              		.align	2
 1382              	PS2_RY:
 1383 0000 00000000 		.space	4
 1384              		.global	PS2_RX
 1385              		.section	.bss.PS2_RX,"aw",%nobits
 1386              		.align	2
 1389              	PS2_RX:
 1390 0000 00000000 		.space	4
 1391              		.global	PS2_LY
 1392              		.section	.bss.PS2_LY,"aw",%nobits
 1393              		.align	2
 1396              	PS2_LY:
 1397 0000 00000000 		.space	4
 1398              		.global	PS2_LX
 1399              		.section	.bss.PS2_LX,"aw",%nobits
 1400              		.align	2
 1403              	PS2_LX:
 1404 0000 00000000 		.space	4
 1405              		.text
 1406              	.Letext0:
 1407              		.file 2 "/opt/ST/STM32CubeCLT_1.21.0/GNU-tools-for-STM32/arm-none-eabi/include/machine/_default_ty
 1408              		.file 3 "/opt/ST/STM32CubeCLT_1.21.0/GNU-tools-for-STM32/arm-none-eabi/include/sys/_stdint.h"
 1409              		.file 4 "Drivers/CMSIS/Device/ST/STM32F4xx/Include/stm32f407xx.h"
 1410              		.file 5 "Drivers/STM32F4xx_HAL_Driver/Inc/stm32f4xx_hal_gpio.h"
 1411              		.file 6 "Core/Inc/Joystick.h"
 1412              		.file 7 "Core/Inc/Motor_Speed_pid.h"
 1413              		.file 8 "Core/Inc/ps2.h"
 1414              		.file 9 "Core/Inc/user_usart.h"
 1415              		.file 10 "Core/Inc/user_delay.h"
ARM GAS  /var/folders/w9/l2kswtfn3fs2kslkvv5vg9sh0000gn/T//ccA6Wpp8.s 			page 31

