ARM GAS  /var/folders/w9/l2kswtfn3fs2kslkvv5vg9sh0000gn/T//cc58rYhb.s 			page 1


   1              		.cpu cortex-m4
   2              		.arch armv7e-m
   3              		.fpu fpv4-sp-d16
   4              		.eabi_attribute 27, 1
   5              		.eabi_attribute 28, 1
   6              		.eabi_attribute 20, 1
   7              		.eabi_attribute 21, 1
   8              		.eabi_attribute 23, 3
   9              		.eabi_attribute 24, 1
  10              		.eabi_attribute 25, 1
  11              		.eabi_attribute 26, 1
  12              		.eabi_attribute 30, 1
  13              		.eabi_attribute 34, 1
  14              		.eabi_attribute 18, 4
  15              		.file	"Task.c"
  16              		.text
  17              	.Ltext0:
  18              		.cfi_sections	.debug_frame
  19              		.file 1 "Core/Src/Task.c"
  20              		.section	.text.TaskAdd,"ax",%progbits
  21              		.align	1
  22              		.global	TaskAdd
  23              		.syntax unified
  24              		.thumb
  25              		.thumb_func
  27              	TaskAdd:
  28              	.LVL0:
  29              	.LFB162:
   1:Core/Src/Task.c **** #include "Task.h"
   2:Core/Src/Task.c **** #include "user_usart.h"
   3:Core/Src/Task.c **** 
   4:Core/Src/Task.c **** uint8_t tot = 0; // counter for tasks, tot == 0 for no task
   5:Core/Src/Task.c **** uint8_t CheckStcik = 0; // Check Stick
   6:Core/Src/Task.c **** Task Tasks[max_tasks_num];
   7:Core/Src/Task.c **** 
   8:Core/Src/Task.c **** Task *TaskAdd(void (*TaskFunction)(void), uint8_t Period){
  30              		.loc 1 8 58 view -0
  31              		.cfi_startproc
  32              		@ args = 0, pretend = 0, frame = 0
  33              		@ frame_needed = 0, uses_anonymous_args = 0
  34              		.loc 1 8 58 is_stmt 0 view .LVU1
  35 0000 10B5     		push	{r4, lr}
  36              	.LCFI0:
  37              		.cfi_def_cfa_offset 8
  38              		.cfi_offset 4, -8
  39              		.cfi_offset 14, -4
   9:Core/Src/Task.c ****     Tasks[++tot].TaskFunction = TaskFunction;
  40              		.loc 1 9 5 is_stmt 1 view .LVU2
  41              		.loc 1 9 11 is_stmt 0 view .LVU3
  42 0002 0E4A     		ldr	r2, .L3
  43 0004 1378     		ldrb	r3, [r2]	@ zero_extendqisi2
  44 0006 0133     		adds	r3, r3, #1
  45 0008 DBB2     		uxtb	r3, r3
  46              		.loc 1 9 31 view .LVU4
  47 000a 1370     		strb	r3, [r2]
  48 000c 0C4C     		ldr	r4, .L3+4
  49 000e 03EB430E 		add	lr, r3, r3, lsl #1
ARM GAS  /var/folders/w9/l2kswtfn3fs2kslkvv5vg9sh0000gn/T//cc58rYhb.s 			page 2


  50 0012 04EB8E02 		add	r2, r4, lr, lsl #2
  51 0016 9060     		str	r0, [r2, #8]
  10:Core/Src/Task.c ****     Tasks[tot].Running = false;
  52              		.loc 1 10 5 is_stmt 1 view .LVU5
  53              		.loc 1 10 24 is_stmt 0 view .LVU6
  54 0018 4FF0000C 		mov	ip, #0
  55 001c 82F801C0 		strb	ip, [r2, #1]
  11:Core/Src/Task.c ****     Tasks[tot].Period = (Period < 0) ? 0 : Period; // make sure Period >= 0
  56              		.loc 1 11 5 is_stmt 1 view .LVU7
  57              		.loc 1 11 23 is_stmt 0 view .LVU8
  58 0020 D170     		strb	r1, [r2, #3]
  12:Core/Src/Task.c ****     Tasks[tot].Waiting = 0;
  59              		.loc 1 12 5 is_stmt 1 view .LVU9
  60              		.loc 1 12 24 is_stmt 0 view .LVU10
  61 0022 82F804C0 		strb	ip, [r2, #4]
  13:Core/Src/Task.c ****     Tasks[tot].IsOn = true; // Defaults to run the task
  62              		.loc 1 13 5 is_stmt 1 view .LVU11
  63              		.loc 1 13 21 is_stmt 0 view .LVU12
  64 0026 0121     		movs	r1, #1
  65              	.LVL1:
  66              		.loc 1 13 21 view .LVU13
  67 0028 04F82E10 		strb	r1, [r4, lr, lsl #2]
  14:Core/Src/Task.c ****     Tasks[tot].TimeTick = Tasks[tot].DeltaTime = 0; // Reset TimeTick
  68              		.loc 1 14 5 is_stmt 1 view .LVU14
  69              		.loc 1 14 48 is_stmt 0 view .LVU15
  70 002c 82F806C0 		strb	ip, [r2, #6]
  71              		.loc 1 14 25 view .LVU16
  72 0030 82F805C0 		strb	ip, [r2, #5]
  15:Core/Src/Task.c ****     Tasks[tot].PrintDeltaTime = false; // Defaults not to print
  73              		.loc 1 15 5 is_stmt 1 view .LVU17
  74              		.loc 1 15 31 is_stmt 0 view .LVU18
  75 0034 82F802C0 		strb	ip, [r2, #2]
  16:Core/Src/Task.c ****     return &Tasks[tot];
  76              		.loc 1 16 5 is_stmt 1 view .LVU19
  17:Core/Src/Task.c **** }
  77              		.loc 1 17 1 is_stmt 0 view .LVU20
  78 0038 1046     		mov	r0, r2
  79              	.LVL2:
  80              		.loc 1 17 1 view .LVU21
  81 003a 10BD     		pop	{r4, pc}
  82              	.L4:
  83              		.align	2
  84              	.L3:
  85 003c 00000000 		.word	tot
  86 0040 00000000 		.word	Tasks
  87              		.cfi_endproc
  88              	.LFE162:
  90              		.section	.text.TaskCheck,"ax",%progbits
  91              		.align	1
  92              		.global	TaskCheck
  93              		.syntax unified
  94              		.thumb
  95              		.thumb_func
  97              	TaskCheck:
  98              	.LFB163:
  18:Core/Src/Task.c **** 
  19:Core/Src/Task.c **** void TaskCheck(){
ARM GAS  /var/folders/w9/l2kswtfn3fs2kslkvv5vg9sh0000gn/T//cc58rYhb.s 			page 3


  99              		.loc 1 19 17 is_stmt 1 view -0
 100              		.cfi_startproc
 101              		@ args = 0, pretend = 0, frame = 0
 102              		@ frame_needed = 0, uses_anonymous_args = 0
 103              		@ link register save eliminated.
  20:Core/Src/Task.c ****     CheckStcik++;
 104              		.loc 1 20 5 view .LVU23
 105              		.loc 1 20 15 is_stmt 0 view .LVU24
 106 0000 114A     		ldr	r2, .L10
 107 0002 1378     		ldrb	r3, [r2]	@ zero_extendqisi2
 108 0004 0133     		adds	r3, r3, #1
 109 0006 1370     		strb	r3, [r2]
  21:Core/Src/Task.c ****     for(uint8_t i = 1; i <= tot; i++){
 110              		.loc 1 21 5 is_stmt 1 view .LVU25
 111              	.LBB2:
 112              		.loc 1 21 9 view .LVU26
 113              	.LVL3:
 114              		.loc 1 21 17 is_stmt 0 view .LVU27
 115 0008 0123     		movs	r3, #1
 116              		.loc 1 21 5 view .LVU28
 117 000a 01E0     		b	.L6
 118              	.LVL4:
 119              	.L7:
 120              		.loc 1 21 35 is_stmt 1 discriminator 2 view .LVU29
 121 000c 0133     		adds	r3, r3, #1
 122              	.LVL5:
 123              		.loc 1 21 35 is_stmt 0 discriminator 2 view .LVU30
 124 000e DBB2     		uxtb	r3, r3
 125              	.LVL6:
 126              	.L6:
 127              		.loc 1 21 26 is_stmt 1 discriminator 1 view .LVU31
 128 0010 0E4A     		ldr	r2, .L10+4
 129 0012 1278     		ldrb	r2, [r2]	@ zero_extendqisi2
 130 0014 9A42     		cmp	r2, r3
 131 0016 16D3     		bcc	.L9
  22:Core/Src/Task.c ****         // Only check task that is on and waiting
  23:Core/Src/Task.c ****         if(Tasks[i].IsOn && Tasks[i].Waiting){
 132              		.loc 1 23 9 view .LVU32
 133              		.loc 1 23 20 is_stmt 0 view .LVU33
 134 0018 03EB4301 		add	r1, r3, r3, lsl #1
 135 001c 8A00     		lsls	r2, r1, #2
 136 001e 0C49     		ldr	r1, .L10+8
 137 0020 8A5C     		ldrb	r2, [r1, r2]	@ zero_extendqisi2
 138              		.loc 1 23 11 view .LVU34
 139 0022 002A     		cmp	r2, #0
 140 0024 F2D0     		beq	.L7
 141              		.loc 1 23 37 discriminator 1 view .LVU35
 142 0026 03EB4302 		add	r2, r3, r3, lsl #1
 143 002a 9100     		lsls	r1, r2, #2
 144 002c 084A     		ldr	r2, .L10+8
 145 002e 0A44     		add	r2, r2, r1
 146 0030 1279     		ldrb	r2, [r2, #4]	@ zero_extendqisi2
 147              		.loc 1 23 26 discriminator 1 view .LVU36
 148 0032 002A     		cmp	r2, #0
 149 0034 EAD0     		beq	.L7
  24:Core/Src/Task.c ****             Tasks[i].Waiting--;
 150              		.loc 1 24 13 is_stmt 1 view .LVU37
ARM GAS  /var/folders/w9/l2kswtfn3fs2kslkvv5vg9sh0000gn/T//cc58rYhb.s 			page 4


 151              		.loc 1 24 29 is_stmt 0 view .LVU38
 152 0036 03EB4301 		add	r1, r3, r3, lsl #1
 153 003a 8800     		lsls	r0, r1, #2
 154 003c 0449     		ldr	r1, .L10+8
 155 003e 0144     		add	r1, r1, r0
 156 0040 013A     		subs	r2, r2, #1
 157 0042 0A71     		strb	r2, [r1, #4]
 158 0044 E2E7     		b	.L7
 159              	.L9:
 160              	.LBE2:
  25:Core/Src/Task.c ****         }
  26:Core/Src/Task.c ****     }
  27:Core/Src/Task.c **** }
 161              		.loc 1 27 1 view .LVU39
 162 0046 7047     		bx	lr
 163              	.L11:
 164              		.align	2
 165              	.L10:
 166 0048 00000000 		.word	CheckStcik
 167 004c 00000000 		.word	tot
 168 0050 00000000 		.word	Tasks
 169              		.cfi_endproc
 170              	.LFE163:
 172              		.section	.rodata.TaskRun.str1.4,"aMS",%progbits,1
 173              		.align	2
 174              	.LC0:
 175 0000 5461736B 		.ascii	"Task No.%d DeltaTime: %d\012\000"
 175      204E6F2E 
 175      25642044 
 175      656C7461 
 175      54696D65 
 176              		.section	.text.TaskRun,"ax",%progbits
 177              		.align	1
 178              		.global	TaskRun
 179              		.syntax unified
 180              		.thumb
 181              		.thumb_func
 183              	TaskRun:
 184              	.LFB164:
  28:Core/Src/Task.c **** 
  29:Core/Src/Task.c **** void TaskRun(){
 185              		.loc 1 29 15 is_stmt 1 view -0
 186              		.cfi_startproc
 187              		@ args = 0, pretend = 0, frame = 0
 188              		@ frame_needed = 0, uses_anonymous_args = 0
 189 0000 F8B5     		push	{r3, r4, r5, r6, r7, lr}
 190              	.LCFI1:
 191              		.cfi_def_cfa_offset 24
 192              		.cfi_offset 3, -24
 193              		.cfi_offset 4, -20
 194              		.cfi_offset 5, -16
 195              		.cfi_offset 6, -12
 196              		.cfi_offset 7, -8
 197              		.cfi_offset 14, -4
  30:Core/Src/Task.c ****     for(uint8_t i = 1; i <= tot; i++){
 198              		.loc 1 30 5 view .LVU41
 199              	.LBB3:
ARM GAS  /var/folders/w9/l2kswtfn3fs2kslkvv5vg9sh0000gn/T//cc58rYhb.s 			page 5


 200              		.loc 1 30 9 view .LVU42
 201              	.LVL7:
 202              		.loc 1 30 17 is_stmt 0 view .LVU43
 203 0002 0124     		movs	r4, #1
 204              		.loc 1 30 5 view .LVU44
 205 0004 13E0     		b	.L13
 206              	.LVL8:
 207              	.L15:
  31:Core/Src/Task.c ****         // Only run task that is on, not running and not waiting
  32:Core/Src/Task.c ****         if(Tasks[i].IsOn && !Tasks[i].Running && !Tasks[i].Waiting){
  33:Core/Src/Task.c ****             Tasks[i].Waiting = Tasks[i].Period; // Reset Waiting Period
  34:Core/Src/Task.c ****             Tasks[i].DeltaTime = CheckStcik - Tasks[i].TimeTick; // Calculate delta time
  35:Core/Src/Task.c ****             if(Tasks[i].PrintDeltaTime) usart_printf("Task No.%d DeltaTime: %d\n", i, Tasks[i].Delt
  36:Core/Src/Task.c ****             Tasks[i].TimeTick = CheckStcik; // Update TimeTick
 208              		.loc 1 36 13 is_stmt 1 view .LVU45
 209              		.loc 1 36 31 is_stmt 0 view .LVU46
 210 0006 204E     		ldr	r6, .L19
 211 0008 6F00     		lsls	r7, r5, #1
 212 000a 05EB4502 		add	r2, r5, r5, lsl #1
 213 000e 9300     		lsls	r3, r2, #2
 214 0010 3344     		add	r3, r3, r6
 215 0012 1E4A     		ldr	r2, .L19+4
 216 0014 1278     		ldrb	r2, [r2]	@ zero_extendqisi2
 217 0016 5A71     		strb	r2, [r3, #5]
  37:Core/Src/Task.c ****             Tasks[i].Running = true;
 218              		.loc 1 37 13 is_stmt 1 view .LVU47
 219              		.loc 1 37 30 is_stmt 0 view .LVU48
 220 0018 0122     		movs	r2, #1
 221 001a 5A70     		strb	r2, [r3, #1]
  38:Core/Src/Task.c ****             Tasks[i].TaskFunction();
 222              		.loc 1 38 13 is_stmt 1 view .LVU49
 223              		.loc 1 38 21 is_stmt 0 view .LVU50
 224 001c 9B68     		ldr	r3, [r3, #8]
 225              		.loc 1 38 13 view .LVU51
 226 001e 9847     		blx	r3
 227              	.LVL9:
  39:Core/Src/Task.c ****             Tasks[i].Running = false;
 228              		.loc 1 39 13 is_stmt 1 view .LVU52
 229              		.loc 1 39 30 is_stmt 0 view .LVU53
 230 0020 7B19     		adds	r3, r7, r5
 231 0022 9A00     		lsls	r2, r3, #2
 232 0024 1644     		add	r6, r6, r2
 233 0026 0023     		movs	r3, #0
 234 0028 7370     		strb	r3, [r6, #1]
 235              	.L14:
  30:Core/Src/Task.c ****         // Only run task that is on, not running and not waiting
 236              		.loc 1 30 35 is_stmt 1 discriminator 2 view .LVU54
 237 002a 0134     		adds	r4, r4, #1
 238              	.LVL10:
  30:Core/Src/Task.c ****         // Only run task that is on, not running and not waiting
 239              		.loc 1 30 35 is_stmt 0 discriminator 2 view .LVU55
 240 002c E4B2     		uxtb	r4, r4
 241              	.LVL11:
 242              	.L13:
  30:Core/Src/Task.c ****         // Only run task that is on, not running and not waiting
 243              		.loc 1 30 26 is_stmt 1 discriminator 1 view .LVU56
 244 002e 184B     		ldr	r3, .L19+8
ARM GAS  /var/folders/w9/l2kswtfn3fs2kslkvv5vg9sh0000gn/T//cc58rYhb.s 			page 6


 245 0030 1B78     		ldrb	r3, [r3]	@ zero_extendqisi2
 246 0032 A342     		cmp	r3, r4
 247 0034 26D3     		bcc	.L18
  32:Core/Src/Task.c ****             Tasks[i].Waiting = Tasks[i].Period; // Reset Waiting Period
 248              		.loc 1 32 9 view .LVU57
  32:Core/Src/Task.c ****             Tasks[i].Waiting = Tasks[i].Period; // Reset Waiting Period
 249              		.loc 1 32 20 is_stmt 0 view .LVU58
 250 0036 2546     		mov	r5, r4
 251 0038 04EB4402 		add	r2, r4, r4, lsl #1
 252 003c 9300     		lsls	r3, r2, #2
 253 003e 124A     		ldr	r2, .L19
 254 0040 D35C     		ldrb	r3, [r2, r3]	@ zero_extendqisi2
  32:Core/Src/Task.c ****             Tasks[i].Waiting = Tasks[i].Period; // Reset Waiting Period
 255              		.loc 1 32 11 view .LVU59
 256 0042 002B     		cmp	r3, #0
 257 0044 F1D0     		beq	.L14
  32:Core/Src/Task.c ****             Tasks[i].Waiting = Tasks[i].Period; // Reset Waiting Period
 258              		.loc 1 32 38 discriminator 1 view .LVU60
 259 0046 04EB4403 		add	r3, r4, r4, lsl #1
 260 004a 9A00     		lsls	r2, r3, #2
 261 004c 0E4B     		ldr	r3, .L19
 262 004e 1344     		add	r3, r3, r2
 263 0050 5B78     		ldrb	r3, [r3, #1]	@ zero_extendqisi2
  32:Core/Src/Task.c ****             Tasks[i].Waiting = Tasks[i].Period; // Reset Waiting Period
 264              		.loc 1 32 26 discriminator 1 view .LVU61
 265 0052 002B     		cmp	r3, #0
 266 0054 E9D1     		bne	.L14
  32:Core/Src/Task.c ****             Tasks[i].Waiting = Tasks[i].Period; // Reset Waiting Period
 267              		.loc 1 32 59 discriminator 2 view .LVU62
 268 0056 0C4B     		ldr	r3, .L19
 269 0058 1344     		add	r3, r3, r2
 270 005a 1B79     		ldrb	r3, [r3, #4]	@ zero_extendqisi2
  32:Core/Src/Task.c ****             Tasks[i].Waiting = Tasks[i].Period; // Reset Waiting Period
 271              		.loc 1 32 47 discriminator 2 view .LVU63
 272 005c 002B     		cmp	r3, #0
 273 005e E4D1     		bne	.L14
  33:Core/Src/Task.c ****             Tasks[i].DeltaTime = CheckStcik - Tasks[i].TimeTick; // Calculate delta time
 274              		.loc 1 33 13 is_stmt 1 view .LVU64
  33:Core/Src/Task.c ****             Tasks[i].DeltaTime = CheckStcik - Tasks[i].TimeTick; // Calculate delta time
 275              		.loc 1 33 40 is_stmt 0 view .LVU65
 276 0060 094B     		ldr	r3, .L19
 277 0062 1344     		add	r3, r3, r2
 278 0064 DA78     		ldrb	r2, [r3, #3]	@ zero_extendqisi2
  33:Core/Src/Task.c ****             Tasks[i].DeltaTime = CheckStcik - Tasks[i].TimeTick; // Calculate delta time
 279              		.loc 1 33 30 view .LVU66
 280 0066 1A71     		strb	r2, [r3, #4]
  34:Core/Src/Task.c ****             if(Tasks[i].PrintDeltaTime) usart_printf("Task No.%d DeltaTime: %d\n", i, Tasks[i].Delt
 281              		.loc 1 34 13 is_stmt 1 view .LVU67
  34:Core/Src/Task.c ****             if(Tasks[i].PrintDeltaTime) usart_printf("Task No.%d DeltaTime: %d\n", i, Tasks[i].Delt
 282              		.loc 1 34 55 is_stmt 0 view .LVU68
 283 0068 5979     		ldrb	r1, [r3, #5]	@ zero_extendqisi2
  34:Core/Src/Task.c ****             if(Tasks[i].PrintDeltaTime) usart_printf("Task No.%d DeltaTime: %d\n", i, Tasks[i].Delt
 284              		.loc 1 34 45 view .LVU69
 285 006a 084A     		ldr	r2, .L19+4
 286 006c 1278     		ldrb	r2, [r2]	@ zero_extendqisi2
 287 006e 521A     		subs	r2, r2, r1
 288 0070 D2B2     		uxtb	r2, r2
ARM GAS  /var/folders/w9/l2kswtfn3fs2kslkvv5vg9sh0000gn/T//cc58rYhb.s 			page 7


  34:Core/Src/Task.c ****             if(Tasks[i].PrintDeltaTime) usart_printf("Task No.%d DeltaTime: %d\n", i, Tasks[i].Delt
 289              		.loc 1 34 32 view .LVU70
 290 0072 9A71     		strb	r2, [r3, #6]
  35:Core/Src/Task.c ****             Tasks[i].TimeTick = CheckStcik; // Update TimeTick
 291              		.loc 1 35 13 is_stmt 1 view .LVU71
  35:Core/Src/Task.c ****             Tasks[i].TimeTick = CheckStcik; // Update TimeTick
 292              		.loc 1 35 24 is_stmt 0 view .LVU72
 293 0074 9B78     		ldrb	r3, [r3, #2]	@ zero_extendqisi2
  35:Core/Src/Task.c ****             Tasks[i].TimeTick = CheckStcik; // Update TimeTick
 294              		.loc 1 35 15 view .LVU73
 295 0076 002B     		cmp	r3, #0
 296 0078 C5D0     		beq	.L15
  35:Core/Src/Task.c ****             Tasks[i].TimeTick = CheckStcik; // Update TimeTick
 297              		.loc 1 35 41 is_stmt 1 discriminator 1 view .LVU74
 298 007a 2146     		mov	r1, r4
 299 007c 0548     		ldr	r0, .L19+12
 300 007e FFF7FEFF 		bl	usart_printf
 301              	.LVL12:
 302 0082 C0E7     		b	.L15
 303              	.L18:
 304              	.LBE3:
  40:Core/Src/Task.c ****         }
  41:Core/Src/Task.c ****     }
  42:Core/Src/Task.c **** }
 305              		.loc 1 42 1 is_stmt 0 view .LVU75
 306 0084 F8BD     		pop	{r3, r4, r5, r6, r7, pc}
 307              	.LVL13:
 308              	.L20:
 309              		.loc 1 42 1 view .LVU76
 310 0086 00BF     		.align	2
 311              	.L19:
 312 0088 00000000 		.word	Tasks
 313 008c 00000000 		.word	CheckStcik
 314 0090 00000000 		.word	tot
 315 0094 00000000 		.word	.LC0
 316              		.cfi_endproc
 317              	.LFE164:
 319              		.section	.text.TaskOn,"ax",%progbits
 320              		.align	1
 321              		.global	TaskOn
 322              		.syntax unified
 323              		.thumb
 324              		.thumb_func
 326              	TaskOn:
 327              	.LVL14:
 328              	.LFB165:
  43:Core/Src/Task.c **** 
  44:Core/Src/Task.c **** void TaskOn(Task *task){
 329              		.loc 1 44 24 is_stmt 1 view -0
 330              		.cfi_startproc
 331              		@ args = 0, pretend = 0, frame = 0
 332              		@ frame_needed = 0, uses_anonymous_args = 0
 333              		@ link register save eliminated.
  45:Core/Src/Task.c ****     task -> IsOn = true;
 334              		.loc 1 45 5 view .LVU78
 335              		.loc 1 45 18 is_stmt 0 view .LVU79
 336 0000 0123     		movs	r3, #1
ARM GAS  /var/folders/w9/l2kswtfn3fs2kslkvv5vg9sh0000gn/T//cc58rYhb.s 			page 8


 337 0002 0370     		strb	r3, [r0]
  46:Core/Src/Task.c **** }
 338              		.loc 1 46 1 view .LVU80
 339 0004 7047     		bx	lr
 340              		.cfi_endproc
 341              	.LFE165:
 343              		.section	.text.TaskOff,"ax",%progbits
 344              		.align	1
 345              		.global	TaskOff
 346              		.syntax unified
 347              		.thumb
 348              		.thumb_func
 350              	TaskOff:
 351              	.LVL15:
 352              	.LFB166:
  47:Core/Src/Task.c **** 
  48:Core/Src/Task.c **** void TaskOff(Task *task){
 353              		.loc 1 48 25 is_stmt 1 view -0
 354              		.cfi_startproc
 355              		@ args = 0, pretend = 0, frame = 0
 356              		@ frame_needed = 0, uses_anonymous_args = 0
 357              		@ link register save eliminated.
  49:Core/Src/Task.c ****     task -> IsOn = false;
 358              		.loc 1 49 5 view .LVU82
 359              		.loc 1 49 18 is_stmt 0 view .LVU83
 360 0000 0023     		movs	r3, #0
 361 0002 0370     		strb	r3, [r0]
  50:Core/Src/Task.c **** }
 362              		.loc 1 50 1 view .LVU84
 363 0004 7047     		bx	lr
 364              		.cfi_endproc
 365              	.LFE166:
 367              		.section	.text.TaskPrintDeltaTime,"ax",%progbits
 368              		.align	1
 369              		.global	TaskPrintDeltaTime
 370              		.syntax unified
 371              		.thumb
 372              		.thumb_func
 374              	TaskPrintDeltaTime:
 375              	.LVL16:
 376              	.LFB167:
  51:Core/Src/Task.c **** 
  52:Core/Src/Task.c **** void TaskPrintDeltaTime(Task *task){
 377              		.loc 1 52 36 is_stmt 1 view -0
 378              		.cfi_startproc
 379              		@ args = 0, pretend = 0, frame = 0
 380              		@ frame_needed = 0, uses_anonymous_args = 0
 381              		@ link register save eliminated.
  53:Core/Src/Task.c ****     task -> PrintDeltaTime = true;
 382              		.loc 1 53 5 view .LVU86
 383              		.loc 1 53 28 is_stmt 0 view .LVU87
 384 0000 0123     		movs	r3, #1
 385 0002 8370     		strb	r3, [r0, #2]
  54:Core/Src/Task.c **** }...
 386              		.loc 1 54 1 view .LVU88
 387 0004 7047     		bx	lr
 388              		.cfi_endproc
ARM GAS  /var/folders/w9/l2kswtfn3fs2kslkvv5vg9sh0000gn/T//cc58rYhb.s 			page 9


 389              	.LFE167:
 391              		.global	Tasks
 392              		.section	.bss.Tasks,"aw",%nobits
 393              		.align	2
 396              	Tasks:
 397 0000 00000000 		.space	120
 397      00000000 
 397      00000000 
 397      00000000 
 397      00000000 
 398              		.global	CheckStcik
 399              		.section	.bss.CheckStcik,"aw",%nobits
 402              	CheckStcik:
 403 0000 00       		.space	1
 404              		.global	tot
 405              		.section	.bss.tot,"aw",%nobits
 408              	tot:
 409 0000 00       		.space	1
 410              		.text
 411              	.Letext0:
 412              		.file 2 "/opt/ST/STM32CubeCLT_1.21.0/GNU-tools-for-STM32/arm-none-eabi/include/machine/_default_ty
 413              		.file 3 "/opt/ST/STM32CubeCLT_1.21.0/GNU-tools-for-STM32/arm-none-eabi/include/sys/_stdint.h"
 414              		.file 4 "Core/Inc/Task.h"
 415              		.file 5 "Core/Inc/user_usart.h"
ARM GAS  /var/folders/w9/l2kswtfn3fs2kslkvv5vg9sh0000gn/T//cc58rYhb.s 			page 10

