ARM GAS  /var/folders/w5/30yxzty101lfkjn94y0dlkk00000gn/T//ccERkZKf.s 			page 1


   1              		.cpu cortex-m4
   2              		.arch armv7e-m
   3              		.fpu fpv4-sp-d16
   4              		.eabi_attribute 27, 1
   5              		.eabi_attribute 28, 1
   6              		.eabi_attribute 20, 1
   7              		.eabi_attribute 21, 1
   8              		.eabi_attribute 23, 3
   9              		.eabi_attribute 24, 1
  10              		.eabi_attribute 25, 1
  11              		.eabi_attribute 26, 1
  12              		.eabi_attribute 30, 1
  13              		.eabi_attribute 34, 1
  14              		.eabi_attribute 18, 4
  15              		.file	"User_init.c"
  16              		.text
  17              	.Ltext0:
  18              		.cfi_sections	.debug_frame
  19              		.file 1 "Core/Src/User_init.c"
  20              		.section	.text.Init_all,"ax",%progbits
  21              		.align	1
  22              		.global	Init_all
  23              		.syntax unified
  24              		.thumb
  25              		.thumb_func
  27              	Init_all:
  28              	.LFB162:
   1:Core/Src/User_init.c **** //User_init.c
   2:Core/Src/User_init.c **** //2023.11.3
   3:Core/Src/User_init.c **** //by gjx
   4:Core/Src/User_init.c **** 
   5:Core/Src/User_init.c **** #include "User_init.h"
   6:Core/Src/User_init.c **** 
   7:Core/Src/User_init.c **** #define SAMPLE_RATE (1.0f / IMUdeltaTime) // replace this with actual sample rate
   8:Core/Src/User_init.c **** 
   9:Core/Src/User_init.c **** extern FusionAhrs ahrs;
  10:Core/Src/User_init.c **** extern FusionOffset offset;
  11:Core/Src/User_init.c **** void Init_all()
  12:Core/Src/User_init.c **** {
  29              		.loc 1 12 1 view -0
  30              		.cfi_startproc
  31              		@ args = 0, pretend = 0, frame = 24
  32              		@ frame_needed = 0, uses_anonymous_args = 0
  33 0000 30B5     		push	{r4, r5, lr}
  34              	.LCFI0:
  35              		.cfi_def_cfa_offset 12
  36              		.cfi_offset 4, -12
  37              		.cfi_offset 5, -8
  38              		.cfi_offset 14, -4
  39 0002 2DED028B 		vpush.64	{d8}
  40              	.LCFI1:
  41              		.cfi_def_cfa_offset 20
  42              		.cfi_offset 80, -20
  43              		.cfi_offset 81, -16
  44 0006 87B0     		sub	sp, sp, #28
  45              	.LCFI2:
  46              		.cfi_def_cfa_offset 48
ARM GAS  /var/folders/w5/30yxzty101lfkjn94y0dlkk00000gn/T//ccERkZKf.s 			page 2


  13:Core/Src/User_init.c **** 	can_filter_init();
  47              		.loc 1 13 2 view .LVU1
  48 0008 FFF7FEFF 		bl	can_filter_init
  49              	.LVL0:
  14:Core/Src/User_init.c **** 	Motor_Speed_pid_init();
  50              		.loc 1 14 2 view .LVU2
  51 000c FFF7FEFF 		bl	Motor_Speed_pid_init
  52              	.LVL1:
  15:Core/Src/User_init.c **** 	PS2_SetInit();
  53              		.loc 1 15 2 view .LVU3
  54 0010 FFF7FEFF 		bl	PS2_SetInit
  55              	.LVL2:
  16:Core/Src/User_init.c **** 	ist8310_init();
  56              		.loc 1 16 2 view .LVU4
  57 0014 FFF7FEFF 		bl	ist8310_init
  58              	.LVL3:
  17:Core/Src/User_init.c **** 	while(BMI088_init());
  59              		.loc 1 17 2 view .LVU5
  60              	.L2:
  61              		.loc 1 17 8 discriminator 1 view .LVU6
  62 0018 FFF7FEFF 		bl	BMI088_init
  63              	.LVL4:
  64 001c 0028     		cmp	r0, #0
  65 001e FBD1     		bne	.L2
  18:Core/Src/User_init.c **** 	FusionAhrsInitialise(&ahrs);
  66              		.loc 1 18 2 view .LVU7
  67 0020 194C     		ldr	r4, .L4
  68 0022 2046     		mov	r0, r4
  69 0024 FFF7FEFF 		bl	FusionAhrsInitialise
  70              	.LVL5:
  19:Core/Src/User_init.c **** 	FusionOffsetInitialise(&offset, SAMPLE_RATE);
  71              		.loc 1 19 2 view .LVU8
  72              		.loc 1 19 34 is_stmt 0 view .LVU9
  73 0028 184D     		ldr	r5, .L4+4
  74 002a B7EE008A 		vmov.f32	s16, #1.0e+0
  75 002e 95ED007A 		vldr.32	s14, [r5]
  76 0032 C8EE077A 		vdiv.f32	s15, s16, s14
  77              		.loc 1 19 2 view .LVU10
  78 0036 FCEEE77A 		vcvt.u32.f32	s15, s15
  79 003a 17EE901A 		vmov	r1, s15	@ int
  80 003e 1448     		ldr	r0, .L4+8
  81 0040 FFF7FEFF 		bl	FusionOffsetInitialise
  82              	.LVL6:
  20:Core/Src/User_init.c **** 	FusionAhrsInitialise(&ahrs);
  83              		.loc 1 20 2 is_stmt 1 view .LVU11
  84 0044 2046     		mov	r0, r4
  85 0046 FFF7FEFF 		bl	FusionAhrsInitialise
  86              	.LVL7:
  21:Core/Src/User_init.c **** 	// Set AHRS algorithm settings
  22:Core/Src/User_init.c **** 	const FusionAhrsSettings settings = {
  87              		.loc 1 22 2 view .LVU12
  88              		.loc 1 22 27 is_stmt 0 view .LVU13
  89 004a 0123     		movs	r3, #1
  90 004c 8DF80030 		strb	r3, [sp]
  91 0050 4FF07C53 		mov	r3, #1056964608
  92 0054 0193     		str	r3, [sp, #4]	@ float
  93 0056 0F4B     		ldr	r3, .L4+12
ARM GAS  /var/folders/w5/30yxzty101lfkjn94y0dlkk00000gn/T//ccERkZKf.s 			page 3


  94 0058 0293     		str	r3, [sp, #8]	@ float
  95 005a 0F4B     		ldr	r3, .L4+16
  96 005c 0393     		str	r3, [sp, #12]	@ float
  97 005e 0493     		str	r3, [sp, #16]	@ float
  23:Core/Src/User_init.c **** 					.convention = FusionConventionEnu,
  24:Core/Src/User_init.c **** 					.gain = 0.5f,
  25:Core/Src/User_init.c **** 					.gyroscopeRange = 2000.0f, /* replace this with actual gyroscope range in degrees/s */
  26:Core/Src/User_init.c **** 					.accelerationRejection = 10.0f,
  27:Core/Src/User_init.c **** 					.magneticRejection = 10.0f,
  28:Core/Src/User_init.c **** 					.recoveryTriggerPeriod = 5 * SAMPLE_RATE, /* 5 seconds */
  98              		.loc 1 28 35 view .LVU14
  99 0060 95ED007A 		vldr.32	s14, [r5]
 100 0064 C8EE077A 		vdiv.f32	s15, s16, s14
 101              		.loc 1 28 33 view .LVU15
 102 0068 B1EE047A 		vmov.f32	s14, #5.0e+0
 103 006c 67EE877A 		vmul.f32	s15, s15, s14
  22:Core/Src/User_init.c **** 					.convention = FusionConventionEnu,
 104              		.loc 1 22 27 view .LVU16
 105 0070 FCEEE77A 		vcvt.u32.f32	s15, s15
 106 0074 CDED057A 		vstr.32	s15, [sp, #20]	@ int
  29:Core/Src/User_init.c **** 	};
  30:Core/Src/User_init.c **** 	FusionAhrsSetSettings(&ahrs, &settings);
 107              		.loc 1 30 2 is_stmt 1 view .LVU17
 108 0078 6946     		mov	r1, sp
 109 007a 2046     		mov	r0, r4
 110 007c FFF7FEFF 		bl	FusionAhrsSetSettings
 111              	.LVL8:
  31:Core/Src/User_init.c **** 	//init_my_sweep();
  32:Core/Src/User_init.c **** }...
 112              		.loc 1 32 1 is_stmt 0 view .LVU18
 113 0080 07B0     		add	sp, sp, #28
 114              	.LCFI3:
 115              		.cfi_def_cfa_offset 20
 116              		@ sp needed
 117 0082 BDEC028B 		vldm	sp!, {d8}
 118              	.LCFI4:
 119              		.cfi_restore 80
 120              		.cfi_restore 81
 121              		.cfi_def_cfa_offset 12
 122 0086 30BD     		pop	{r4, r5, pc}
 123              	.L5:
 124              		.align	2
 125              	.L4:
 126 0088 00000000 		.word	ahrs
 127 008c 00000000 		.word	IMUdeltaTime
 128 0090 00000000 		.word	offset
 129 0094 0000FA44 		.word	1157234688
 130 0098 00002041 		.word	1092616192
 131              		.cfi_endproc
 132              	.LFE162:
 134              		.text
 135              	.Letext0:
 136              		.file 2 "/Applications/ArmGNUToolchain/13.3.rel1/arm-none-eabi/arm-none-eabi/include/machine/_defa
 137              		.file 3 "/Applications/ArmGNUToolchain/13.3.rel1/arm-none-eabi/arm-none-eabi/include/sys/_stdint.h
 138              		.file 4 "Core/Inc/FusionConvention.h"
 139              		.file 5 "Core/Inc/FusionMath.h"
 140              		.file 6 "Core/Inc/FusionAhrs.h"
ARM GAS  /var/folders/w5/30yxzty101lfkjn94y0dlkk00000gn/T//ccERkZKf.s 			page 4


 141              		.file 7 "Core/Inc/FusionOffset.h"
 142              		.file 8 "Core/Inc/IMU.h"
 143              		.file 9 "Core/Inc/BMI088driver.h"
 144              		.file 10 "Core/Inc/ist8310driver.h"
 145              		.file 11 "Core/Inc/ps2.h"
 146              		.file 12 "Core/Inc/Motor_Speed_pid.h"
 147              		.file 13 "Core/Inc/bsp_can.h"
ARM GAS  /var/folders/w5/30yxzty101lfkjn94y0dlkk00000gn/T//ccERkZKf.s 			page 5

