ARM GAS  /var/folders/w5/30yxzty101lfkjn94y0dlkk00000gn/T//cc3dx2xk.s 			page 1


   1              		.cpu cortex-m4
   2              		.arch armv7e-m
   3              		.fpu fpv4-sp-d16
   4              		.eabi_attribute 27, 1
   5              		.eabi_attribute 28, 1
   6              		.eabi_attribute 20, 1
   7              		.eabi_attribute 21, 1
   8              		.eabi_attribute 23, 3
   9              		.eabi_attribute 24, 1
  10              		.eabi_attribute 25, 1
  11              		.eabi_attribute 26, 1
  12              		.eabi_attribute 30, 1
  13              		.eabi_attribute 34, 1
  14              		.eabi_attribute 18, 4
  15              		.file	"user_usart.c"
  16              		.text
  17              	.Ltext0:
  18              		.cfi_sections	.debug_frame
  19              		.file 1 "Core/Src/user_usart.c"
  20              		.section	.text.usart_printf,"ax",%progbits
  21              		.align	1
  22              		.global	usart_printf
  23              		.syntax unified
  24              		.thumb
  25              		.thumb_func
  27              	usart_printf:
  28              	.LVL0:
  29              	.LFB162:
   1:Core/Src/user_usart.c **** //user_usart.c
   2:Core/Src/user_usart.c **** //2023.10.20
   3:Core/Src/user_usart.c **** //by gjx
   4:Core/Src/user_usart.c **** 
   5:Core/Src/user_usart.c **** #include "user_usart.h"
   6:Core/Src/user_usart.c **** 
   7:Core/Src/user_usart.c **** 
   8:Core/Src/user_usart.c **** void usart_printf(const char *fmt,...)
   9:Core/Src/user_usart.c **** {
  30              		.loc 1 9 1 view -0
  31              		.cfi_startproc
  32              		@ args = 4, pretend = 16, frame = 0
  33              		@ frame_needed = 0, uses_anonymous_args = 1
  34              		.loc 1 9 1 is_stmt 0 view .LVU1
  35 0000 0FB4     		push	{r0, r1, r2, r3}
  36              	.LCFI0:
  37              		.cfi_def_cfa_offset 16
  38              		.cfi_offset 0, -16
  39              		.cfi_offset 1, -12
  40              		.cfi_offset 2, -8
  41              		.cfi_offset 3, -4
  42 0002 10B5     		push	{r4, lr}
  43              	.LCFI1:
  44              		.cfi_def_cfa_offset 24
  45              		.cfi_offset 4, -24
  46              		.cfi_offset 14, -20
  47 0004 02AA     		add	r2, sp, #8
  48 0006 52F8041B 		ldr	r1, [r2], #4
  10:Core/Src/user_usart.c ****     static uint8_t tx_buf[256] = {0};
ARM GAS  /var/folders/w5/30yxzty101lfkjn94y0dlkk00000gn/T//cc3dx2xk.s 			page 2


  49              		.loc 1 10 5 is_stmt 1 view .LVU2
  11:Core/Src/user_usart.c ****     static va_list ap;
  50              		.loc 1 11 5 view .LVU3
  12:Core/Src/user_usart.c ****     static uint16_t len;
  51              		.loc 1 12 5 view .LVU4
  13:Core/Src/user_usart.c ****     va_start(ap, fmt);
  52              		.loc 1 13 5 view .LVU5
  53 000a 084B     		ldr	r3, .L3
  54 000c 1A60     		str	r2, [r3]
  14:Core/Src/user_usart.c **** 
  15:Core/Src/user_usart.c ****     //return length of string 
  16:Core/Src/user_usart.c ****     //∑µªÿ◊÷∑˚¥Æ≥§∂»
  17:Core/Src/user_usart.c ****     len = vsprintf((char *)tx_buf, fmt, ap);
  55              		.loc 1 17 5 view .LVU6
  56              		.loc 1 17 11 is_stmt 0 view .LVU7
  57 000e 084C     		ldr	r4, .L3+4
  58 0010 2046     		mov	r0, r4
  59 0012 FFF7FEFF 		bl	vsprintf
  60              	.LVL1:
  61              		.loc 1 17 9 discriminator 1 view .LVU8
  62 0016 82B2     		uxth	r2, r0
  63 0018 064B     		ldr	r3, .L3+8
  64 001a 1A80     		strh	r2, [r3]	@ movhi
  18:Core/Src/user_usart.c **** 
  19:Core/Src/user_usart.c ****     va_end(ap);
  65              		.loc 1 19 5 is_stmt 1 view .LVU9
  20:Core/Src/user_usart.c ****     //HAL_UART_Transmit(&huart1, (uint8_t*)"Hello World\r\n", strlen("Hello World\r\n"), HAL_MAX_DE
  21:Core/Src/user_usart.c **** 
  22:Core/Src/user_usart.c **** 
  23:Core/Src/user_usart.c ****    HAL_UART_Transmit_DMA(&huart1,tx_buf, len);
  66              		.loc 1 23 4 view .LVU10
  67 001c 2146     		mov	r1, r4
  68 001e 0648     		ldr	r0, .L3+12
  69 0020 FFF7FEFF 		bl	HAL_UART_Transmit_DMA
  70              	.LVL2:
  24:Core/Src/user_usart.c **** 
  25:Core/Src/user_usart.c **** }
  71              		.loc 1 25 1 is_stmt 0 view .LVU11
  72 0024 BDE81040 		pop	{r4, lr}
  73              	.LCFI2:
  74              		.cfi_restore 14
  75              		.cfi_restore 4
  76              		.cfi_def_cfa_offset 16
  77 0028 04B0     		add	sp, sp, #16
  78              	.LCFI3:
  79              		.cfi_restore 3
  80              		.cfi_restore 2
  81              		.cfi_restore 1
  82              		.cfi_restore 0
  83              		.cfi_def_cfa_offset 0
  84 002a 7047     		bx	lr
  85              	.L4:
  86              		.align	2
  87              	.L3:
  88 002c 00000000 		.word	ap.2
  89 0030 00000000 		.word	tx_buf.1
  90 0034 00000000 		.word	len.0
ARM GAS  /var/folders/w5/30yxzty101lfkjn94y0dlkk00000gn/T//cc3dx2xk.s 			page 3


  91 0038 00000000 		.word	huart1
  92              		.cfi_endproc
  93              	.LFE162:
  95              		.section	.bss.len.0,"aw",%nobits
  96              		.align	1
  99              	len.0:
 100 0000 0000     		.space	2
 101              		.section	.bss.tx_buf.1,"aw",%nobits
 102              		.align	2
 105              	tx_buf.1:
 106 0000 00000000 		.space	256
 106      00000000 
 106      00000000 
 106      00000000 
 106      00000000 
 107              		.section	.bss.ap.2,"aw",%nobits
 108              		.align	2
 111              	ap.2:
 112 0000 00000000 		.space	4
 113              		.text
 114              	.Letext0:
 115              		.file 2 "/Applications/ArmGNUToolchain/13.3.rel1/arm-none-eabi/arm-none-eabi/include/machine/_defa
 116              		.file 3 "/Applications/ArmGNUToolchain/13.3.rel1/arm-none-eabi/lib/gcc/arm-none-eabi/13.3.1/includ
 117              		.file 4 "/Applications/ArmGNUToolchain/13.3.rel1/arm-none-eabi/arm-none-eabi/include/stdio.h"
 118              		.file 5 "/Applications/ArmGNUToolchain/13.3.rel1/arm-none-eabi/arm-none-eabi/include/sys/_stdint.h
 119              		.file 6 "Drivers/CMSIS/Device/ST/STM32F4xx/Include/stm32f407xx.h"
 120              		.file 7 "Drivers/STM32F4xx_HAL_Driver/Inc/stm32f4xx_hal_def.h"
 121              		.file 8 "Drivers/STM32F4xx_HAL_Driver/Inc/stm32f4xx_hal_dma.h"
 122              		.file 9 "Drivers/STM32F4xx_HAL_Driver/Inc/stm32f4xx_hal_uart.h"
 123              		.file 10 "<built-in>"
 124              		.file 11 "Core/Inc/usart.h"
ARM GAS  /var/folders/w5/30yxzty101lfkjn94y0dlkk00000gn/T//cc3dx2xk.s 			page 4


DEFINED SYMBOLS
                            *ABS*:00000000 user_usart.c
/var/folders/w5/30yxzty101lfkjn94y0dlkk00000gn/T//cc3dx2xk.s:21     .text.usart_printf:00000000 $t
/var/folders/w5/30yxzty101lfkjn94y0dlkk00000gn/T//cc3dx2xk.s:27     .text.usart_printf:00000000 usart_printf
/var/folders/w5/30yxzty101lfkjn94y0dlkk00000gn/T//cc3dx2xk.s:88     .text.usart_printf:0000002c $d
/var/folders/w5/30yxzty101lfkjn94y0dlkk00000gn/T//cc3dx2xk.s:111    .bss.ap.2:00000000 ap.2
/var/folders/w5/30yxzty101lfkjn94y0dlkk00000gn/T//cc3dx2xk.s:105    .bss.tx_buf.1:00000000 tx_buf.1
/var/folders/w5/30yxzty101lfkjn94y0dlkk00000gn/T//cc3dx2xk.s:99     .bss.len.0:00000000 len.0
/var/folders/w5/30yxzty101lfkjn94y0dlkk00000gn/T//cc3dx2xk.s:96     .bss.len.0:00000000 $d
/var/folders/w5/30yxzty101lfkjn94y0dlkk00000gn/T//cc3dx2xk.s:102    .bss.tx_buf.1:00000000 $d
/var/folders/w5/30yxzty101lfkjn94y0dlkk00000gn/T//cc3dx2xk.s:108    .bss.ap.2:00000000 $d

UNDEFINED SYMBOLS
vsprintf
HAL_UART_Transmit_DMA
huart1
