ARM GAS  /var/folders/w9/l2kswtfn3fs2kslkvv5vg9sh0000gn/T//ccFA19kF.s 			page 1


   1              		.cpu cortex-m4
   2              		.arch armv7e-m
   3              		.fpu fpv4-sp-d16
   4              		.eabi_attribute 27, 1
   5              		.eabi_attribute 28, 1
   6              		.eabi_attribute 20, 1
   7              		.eabi_attribute 21, 1
   8              		.eabi_attribute 23, 3
   9              		.eabi_attribute 24, 1
  10              		.eabi_attribute 25, 1
  11              		.eabi_attribute 26, 1
  12              		.eabi_attribute 30, 1
  13              		.eabi_attribute 34, 1
  14              		.eabi_attribute 18, 4
  15              		.file	"user_usart.c"
  16              		.text
  17              	.Ltext0:
  18              		.cfi_sections	.debug_frame
  19              		.file 1 "Core/Src/user_usart.c"
  20              		.section	.text.usart_printf,"ax",%progbits
  21              		.align	1
  22              		.global	usart_printf
  23              		.syntax unified
  24              		.thumb
  25              		.thumb_func
  27              	usart_printf:
  28              	.LVL0:
  29              	.LFB162:
   1:Core/Src/user_usart.c **** //user_usart.c
   2:Core/Src/user_usart.c **** //2023.10.20
   3:Core/Src/user_usart.c **** //by gjx
   4:Core/Src/user_usart.c **** 
   5:Core/Src/user_usart.c **** #include "user_usart.h"
   6:Core/Src/user_usart.c **** #include <stdio.h>
   7:Core/Src/user_usart.c **** 
   8:Core/Src/user_usart.c **** 
   9:Core/Src/user_usart.c **** void usart_printf(const char *fmt,...)
  10:Core/Src/user_usart.c **** {
  30              		.loc 1 10 1 view -0
  31              		.cfi_startproc
  32              		@ args = 4, pretend = 16, frame = 0
  33              		@ frame_needed = 0, uses_anonymous_args = 1
  34              		.loc 1 10 1 is_stmt 0 view .LVU1
  35 0000 0FB4     		push	{r0, r1, r2, r3}
  36              	.LCFI0:
  37              		.cfi_def_cfa_offset 16
  38              		.cfi_offset 0, -16
  39              		.cfi_offset 1, -12
  40              		.cfi_offset 2, -8
  41              		.cfi_offset 3, -4
  42 0002 08B5     		push	{r3, lr}
  43              	.LCFI1:
  44              		.cfi_def_cfa_offset 24
  45              		.cfi_offset 3, -24
  46              		.cfi_offset 14, -20
  11:Core/Src/user_usart.c ****     static uint8_t tx_buf[256] = {0};
  47              		.loc 1 11 5 is_stmt 1 view .LVU2
ARM GAS  /var/folders/w9/l2kswtfn3fs2kslkvv5vg9sh0000gn/T//ccFA19kF.s 			page 2


  12:Core/Src/user_usart.c ****     static va_list ap;
  48              		.loc 1 12 5 view .LVU3
  13:Core/Src/user_usart.c ****     static uint16_t len;
  49              		.loc 1 13 5 view .LVU4
  14:Core/Src/user_usart.c **** 
  15:Core/Src/user_usart.c ****     // DMA busy 守卫: 如果上一次发送未完成，跳过本次
  16:Core/Src/user_usart.c ****     if (huart1.gState != HAL_UART_STATE_READY) {
  50              		.loc 1 16 5 view .LVU5
  51              		.loc 1 16 15 is_stmt 0 view .LVU6
  52 0004 104B     		ldr	r3, .L6
  53 0006 93F84130 		ldrb	r3, [r3, #65]	@ zero_extendqisi2
  54              		.loc 1 16 8 view .LVU7
  55 000a 202B     		cmp	r3, #32
  56 000c 03D0     		beq	.L5
  57              	.L1:
  17:Core/Src/user_usart.c ****         return;
  18:Core/Src/user_usart.c ****     }
  19:Core/Src/user_usart.c **** 
  20:Core/Src/user_usart.c ****     va_start(ap, fmt);
  21:Core/Src/user_usart.c ****     len = vsnprintf((char *)tx_buf, sizeof(tx_buf), fmt, ap);
  22:Core/Src/user_usart.c ****     va_end(ap);
  23:Core/Src/user_usart.c **** 
  24:Core/Src/user_usart.c ****     if (len > sizeof(tx_buf)) {
  25:Core/Src/user_usart.c ****         len = sizeof(tx_buf);  // 截断保护
  26:Core/Src/user_usart.c ****     }
  27:Core/Src/user_usart.c **** 
  28:Core/Src/user_usart.c ****     HAL_UART_Transmit_DMA(&huart1, tx_buf, len);
  29:Core/Src/user_usart.c **** }
  58              		.loc 1 29 1 view .LVU8
  59 000e BDE80840 		pop	{r3, lr}
  60              	.LCFI2:
  61              		.cfi_remember_state
  62              		.cfi_restore 14
  63              		.cfi_restore 3
  64              		.cfi_def_cfa_offset 16
  65 0012 04B0     		add	sp, sp, #16
  66              	.LCFI3:
  67              		.cfi_restore 3
  68              		.cfi_restore 2
  69              		.cfi_restore 1
  70              		.cfi_restore 0
  71              		.cfi_def_cfa_offset 0
  72 0014 7047     		bx	lr
  73              	.L5:
  74              	.LCFI4:
  75              		.cfi_restore_state
  20:Core/Src/user_usart.c ****     len = vsnprintf((char *)tx_buf, sizeof(tx_buf), fmt, ap);
  76              		.loc 1 20 5 is_stmt 1 view .LVU9
  77 0016 03AB     		add	r3, sp, #12
  78 0018 0C4A     		ldr	r2, .L6+4
  79 001a 1360     		str	r3, [r2]
  21:Core/Src/user_usart.c ****     va_end(ap);
  80              		.loc 1 21 5 view .LVU10
  21:Core/Src/user_usart.c ****     va_end(ap);
  81              		.loc 1 21 11 is_stmt 0 view .LVU11
  82 001c 029A     		ldr	r2, [sp, #8]
  83 001e 4FF48071 		mov	r1, #256
ARM GAS  /var/folders/w9/l2kswtfn3fs2kslkvv5vg9sh0000gn/T//ccFA19kF.s 			page 3


  84 0022 0B48     		ldr	r0, .L6+8
  85 0024 FFF7FEFF 		bl	vsnprintf
  86              	.LVL1:
  21:Core/Src/user_usart.c ****     va_end(ap);
  87              		.loc 1 21 9 discriminator 1 view .LVU12
  88 0028 80B2     		uxth	r0, r0
  89 002a 0A4B     		ldr	r3, .L6+12
  90 002c 1880     		strh	r0, [r3]	@ movhi
  22:Core/Src/user_usart.c **** 
  91              		.loc 1 22 5 is_stmt 1 view .LVU13
  24:Core/Src/user_usart.c ****         len = sizeof(tx_buf);  // 截断保护
  92              		.loc 1 24 5 view .LVU14
  24:Core/Src/user_usart.c ****         len = sizeof(tx_buf);  // 截断保护
  93              		.loc 1 24 8 is_stmt 0 view .LVU15
  94 002e B0F5807F 		cmp	r0, #256
  95 0032 02D9     		bls	.L3
  25:Core/Src/user_usart.c ****     }
  96              		.loc 1 25 9 is_stmt 1 view .LVU16
  25:Core/Src/user_usart.c ****     }
  97              		.loc 1 25 13 is_stmt 0 view .LVU17
  98 0034 4FF48072 		mov	r2, #256
  99 0038 1A80     		strh	r2, [r3]	@ movhi
 100              	.L3:
  28:Core/Src/user_usart.c **** }
 101              		.loc 1 28 5 is_stmt 1 view .LVU18
 102 003a 064B     		ldr	r3, .L6+12
 103 003c 1A88     		ldrh	r2, [r3]
 104 003e 0449     		ldr	r1, .L6+8
 105 0040 0148     		ldr	r0, .L6
 106 0042 FFF7FEFF 		bl	HAL_UART_Transmit_DMA
 107              	.LVL2:
 108 0046 E2E7     		b	.L1
 109              	.L7:
 110              		.align	2
 111              	.L6:
 112 0048 00000000 		.word	huart1
 113 004c 00000000 		.word	ap.2
 114 0050 00000000 		.word	tx_buf.1
 115 0054 00000000 		.word	len.0
 116              		.cfi_endproc
 117              	.LFE162:
 119              		.section	.bss.len.0,"aw",%nobits
 120              		.align	1
 123              	len.0:
 124 0000 0000     		.space	2
 125              		.section	.bss.tx_buf.1,"aw",%nobits
 126              		.align	2
 129              	tx_buf.1:
 130 0000 00000000 		.space	256
 130      00000000 
 130      00000000 
 130      00000000 
 130      00000000 
 131              		.section	.bss.ap.2,"aw",%nobits
 132              		.align	2
 135              	ap.2:
 136 0000 00000000 		.space	4
ARM GAS  /var/folders/w9/l2kswtfn3fs2kslkvv5vg9sh0000gn/T//ccFA19kF.s 			page 4


 137              		.text
 138              	.Letext0:
 139              		.file 2 "/opt/ST/STM32CubeCLT_1.21.0/GNU-tools-for-STM32/arm-none-eabi/include/machine/_default_ty
 140              		.file 3 "/opt/ST/STM32CubeCLT_1.21.0/GNU-tools-for-STM32/lib/gcc/arm-none-eabi/14.3.1/include/stda
 141              		.file 4 "/opt/ST/STM32CubeCLT_1.21.0/GNU-tools-for-STM32/arm-none-eabi/include/stdio.h"
 142              		.file 5 "/opt/ST/STM32CubeCLT_1.21.0/GNU-tools-for-STM32/arm-none-eabi/include/sys/_stdint.h"
 143              		.file 6 "Drivers/CMSIS/Device/ST/STM32F4xx/Include/stm32f407xx.h"
 144              		.file 7 "Drivers/STM32F4xx_HAL_Driver/Inc/stm32f4xx_hal_def.h"
 145              		.file 8 "Drivers/STM32F4xx_HAL_Driver/Inc/stm32f4xx_hal_dma.h"
 146              		.file 9 "Drivers/STM32F4xx_HAL_Driver/Inc/stm32f4xx_hal_uart.h"
 147              		.file 10 "<built-in>"
 148              		.file 11 "Core/Inc/usart.h"
ARM GAS  /var/folders/w9/l2kswtfn3fs2kslkvv5vg9sh0000gn/T//ccFA19kF.s 			page 5

